Archive member included because of file (symbol)

/Programs/devkitpro/libogc/lib/wii/libmii.a(mii.o)
                              main.o (loadMiis_Wii)
/Programs/devkitpro/libogc/lib/wii/libisfs.a(isfs.o)
                              /Programs/devkitpro/libogc/lib/wii/libmii.a(mii.o) (ISFS_Unmount)
/Programs/devkitpro/libogc/lib/wii/libisfs.a(certs.bin.o)
                              /Programs/devkitpro/libogc/lib/wii/libisfs.a(isfs.o) (certs_bin_size)
/Programs/devkitpro/libogc/lib/wii/libisfs.a(su_tik.bin.o)
                              /Programs/devkitpro/libogc/lib/wii/libisfs.a(isfs.o) (su_tik_bin_size)
/Programs/devkitpro/libogc/lib/wii/libisfs.a(su_tmd.bin.o)
                              /Programs/devkitpro/libogc/lib/wii/libisfs.a(isfs.o) (su_tmd_bin_size)
/Programs/devkitpro/libogc/lib/wii/libwiiuse.a(wpad.o)
                              main.o (WPAD_ButtonsDown)
/Programs/devkitpro/libogc/lib/wii/libwiiuse.a(dynamics.o)
                              /Programs/devkitpro/libogc/lib/wii/libwiiuse.a(wpad.o) (calculate_gforce)
/Programs/devkitpro/libogc/lib/wii/libwiiuse.a(io_wii.o)
                              /Programs/devkitpro/libogc/lib/wii/libwiiuse.a(wpad.o) (wiiuse_disconnect)
/Programs/devkitpro/libogc/lib/wii/libwiiuse.a(ir.o)
                              /Programs/devkitpro/libogc/lib/wii/libwiiuse.a(wpad.o) (wiiuse_set_ir_vres)
/Programs/devkitpro/libogc/lib/wii/libwiiuse.a(wiiuse.o)
                              /Programs/devkitpro/libogc/lib/wii/libwiiuse.a(wpad.o) (wiiuse_set_flags)
/Programs/devkitpro/libogc/lib/wii/libwiiuse.a(events.o)
                              /Programs/devkitpro/libogc/lib/wii/libwiiuse.a(io_wii.o) (parse_event)
/Programs/devkitpro/libogc/lib/wii/libwiiuse.a(guitar_hero_3.o)
                              /Programs/devkitpro/libogc/lib/wii/libwiiuse.a(events.o) (guitar_hero_3_event)
/Programs/devkitpro/libogc/lib/wii/libwiiuse.a(io.o)
                              /Programs/devkitpro/libogc/lib/wii/libwiiuse.a(events.o) (wiiuse_disable_expansion)
/Programs/devkitpro/libogc/lib/wii/libwiiuse.a(nunchuk.o)
                              /Programs/devkitpro/libogc/lib/wii/libwiiuse.a(events.o) (nunchuk_event)
/Programs/devkitpro/libogc/lib/wii/libwiiuse.a(wiiboard.o)
                              /Programs/devkitpro/libogc/lib/wii/libwiiuse.a(events.o) (wii_board_event)
/Programs/devkitpro/libogc/lib/wii/libwiiuse.a(classic.o)
                              /Programs/devkitpro/libogc/lib/wii/libwiiuse.a(events.o) (classic_ctrl_event)
/Programs/devkitpro/libogc/lib/wii/libbte.a(bte.o)
                              /Programs/devkitpro/libogc/lib/wii/libwiiuse.a(io_wii.o) (bte_arg)
/Programs/devkitpro/libogc/lib/wii/libbte.a(hci.o)
                              /Programs/devkitpro/libogc/lib/wii/libbte.a(bte.o) (hci_arg)
/Programs/devkitpro/libogc/lib/wii/libbte.a(l2cap.o)
                              /Programs/devkitpro/libogc/lib/wii/libbte.a(hci.o) (lp_connect_ind)
/Programs/devkitpro/libogc/lib/wii/libbte.a(btmemb.o)
                              /Programs/devkitpro/libogc/lib/wii/libbte.a(bte.o) (btmemb_alloc)
/Programs/devkitpro/libogc/lib/wii/libbte.a(btmemr.o)
                              /Programs/devkitpro/libogc/lib/wii/libbte.a(hci.o) (btmemr_init)
/Programs/devkitpro/libogc/lib/wii/libbte.a(btpbuf.o)
                              /Programs/devkitpro/libogc/lib/wii/libbte.a(hci.o) (btpbuf_header)
/Programs/devkitpro/libogc/lib/wii/libbte.a(physbusif.o)
                              /Programs/devkitpro/libogc/lib/wii/libbte.a(bte.o) (physbusif_close)
/Programs/devkitpro/libogc/lib/wii/libogc.a(console.o)
                              main.o (CON_Init)
/Programs/devkitpro/libogc/lib/wii/libogc.a(lwp_queue.o)
                              /Programs/devkitpro/libogc/lib/wii/libwiiuse.a(io_wii.o) (__lwp_queue_initialize)
/Programs/devkitpro/libogc/lib/wii/libogc.a(lwp_threads.o)
                              /Programs/devkitpro/libogc/lib/wii/libwiiuse.a(wpad.o) (_thread_dispatch_disable_level)
/Programs/devkitpro/libogc/lib/wii/libogc.a(lwp.o)
                              /Programs/devkitpro/libogc/lib/wii/libbte.a(bte.o) (LWP_ThreadSignal)
/Programs/devkitpro/libogc/lib/wii/libogc.a(lwp_handler.o)
                              /Programs/devkitpro/libogc/lib/wii/libogc.a(lwp_threads.o) (_cpu_context_save_fp)
/Programs/devkitpro/libogc/lib/wii/libogc.a(lwp_stack.o)
                              /Programs/devkitpro/libogc/lib/wii/libogc.a(lwp_threads.o) (__lwp_stack_free)
/Programs/devkitpro/libogc/lib/wii/libogc.a(lwp_watchdog.o)
                              /Programs/devkitpro/libogc/lib/wii/libogc.a(lwp_threads.o) (_wd_ticks_queue)
/Programs/devkitpro/libogc/lib/wii/libogc.a(lwp_wkspace.o)
                              /Programs/devkitpro/libogc/lib/wii/libwiiuse.a(io_wii.o) (__wkspace_heap)
/Programs/devkitpro/libogc/lib/wii/libogc.a(lwp_objmgr.o)
                              /Programs/devkitpro/libogc/lib/wii/libogc.a(lwp.o) (__lwp_objmgr_getnoprotection)
/Programs/devkitpro/libogc/lib/wii/libogc.a(lwp_heap.o)
                              /Programs/devkitpro/libogc/lib/wii/libogc.a(lwp_wkspace.o) (__lwp_heap_init)
/Programs/devkitpro/libogc/lib/wii/libogc.a(sys_state.o)
                              /Programs/devkitpro/libogc/lib/wii/libogc.a(lwp_threads.o) (_sys_state_curr)
/Programs/devkitpro/libogc/lib/wii/libogc.a(irq.o)
                              /Programs/devkitpro/libogc/lib/wii/libwiiuse.a(io_wii.o) (IRQ_Disable)
/Programs/devkitpro/libogc/lib/wii/libogc.a(video.o)
                              /Programs/devkitpro/libogc/lib/wii/libogc.a(console.o) (VIDEO_GetCurrentFramebuffer)
/Programs/devkitpro/libogc/lib/wii/libogc.a(system.o)
                              /Programs/devkitpro/libogc/lib/wii/libwiiuse.a(wpad.o) (__SYS_DoPowerCB)
/Programs/devkitpro/libogc/lib/wii/libogc.a(system_asm.o)
                              /Programs/devkitpro/libogc/lib/wii/libogc.a(system.o) (__realmode)
/Programs/devkitpro/libogc/lib/wii/libogc.a(cond.o)
                              /Programs/devkitpro/libogc/lib/wii/libogc.a(system.o) (__lwp_cond_init)
/Programs/devkitpro/libogc/lib/wii/libogc.a(decrementer.o)
                              /Programs/devkitpro/libogc/lib/wii/libogc.a(system.o) (__decrementer_init)
/Programs/devkitpro/libogc/lib/wii/libogc.a(message.o)
                              /Programs/devkitpro/libogc/lib/wii/libogc.a(system.o) (__lwp_mqbox_init)
/Programs/devkitpro/libogc/lib/wii/libogc.a(si.o)
                              /Programs/devkitpro/libogc/lib/wii/libogc.a(system.o) (__si_init)
/Programs/devkitpro/libogc/lib/wii/libogc.a(ipc.o)
                              /Programs/devkitpro/libogc/lib/wii/libbte.a(physbusif.o) (__IPC_ClntInit)
/Programs/devkitpro/libogc/lib/wii/libogc.a(ogc_crt0.o)
                              (_start)
/Programs/devkitpro/libogc/lib/wii/libogc.a(console_font_8x16.o)
                              /Programs/devkitpro/libogc/lib/wii/libogc.a(console.o) (console_font_8x16)
/Programs/devkitpro/libogc/lib/wii/libogc.a(timesupp.o)
                              /Programs/devkitpro/libogc/lib/wii/libogc.a(system.o) (gettick)
/Programs/devkitpro/libogc/lib/wii/libogc.a(lock_supp.o)
                              /Programs/devkitpro/libogc/lib/wii/libogc.a(system.o) (__libogc_lock_release)
/Programs/devkitpro/libogc/lib/wii/libogc.a(newlibc.o)
                              /Programs/devkitpro/libogc/lib/wii/libogc.a(lwp_threads.o) (__libc_create_hook)
/Programs/devkitpro/libogc/lib/wii/libogc.a(usbgecko.o)
                              /Programs/devkitpro/libogc/lib/wii/libogc.a(console.o) (usb_sendbuffer)
/Programs/devkitpro/libogc/lib/wii/libogc.a(sbrk.o)
                              /Programs/devkitpro/libogc/lib/wii/libogc.a(system.o) (__libogc_sbrk_r)
/Programs/devkitpro/libogc/lib/wii/libogc.a(malloc_lock.o)
                              /Programs/devkitpro/libogc/lib/wii/libogc.a(system.o) (__libogc_malloc_lock)
/Programs/devkitpro/libogc/lib/wii/libogc.a(stm.o)
                              /Programs/devkitpro/libogc/lib/wii/libogc.a(system.o) (STM_RegisterEventHandler)
/Programs/devkitpro/libogc/lib/wii/libogc.a(ios.o)
                              /Programs/devkitpro/libogc/lib/wii/libogc.a(system.o) (__IOS_ShutdownSubsystems)
/Programs/devkitpro/libogc/lib/wii/libogc.a(es.o)
                              /Programs/devkitpro/libogc/lib/wii/libogc.a(ios.o) (__ES_Reset)
/Programs/devkitpro/libogc/lib/wii/libogc.a(isfs.o)
                              /Programs/devkitpro/libogc/lib/wii/libisfs.a(isfs.o) (ISFS_ReadDir)
/Programs/devkitpro/libogc/lib/wii/libogc.a(usb.o)
                              /Programs/devkitpro/libogc/lib/wii/libbte.a(physbusif.o) (USB_CloseDeviceAsync)
/Programs/devkitpro/libogc/lib/wii/libogc.a(argv.o)
                              /Programs/devkitpro/libogc/lib/wii/libogc.a(ogc_crt0.o) (__CheckARGV)
/Programs/devkitpro/libogc/lib/wii/libogc.a(conf.o)
                              /Programs/devkitpro/libogc/lib/wii/libwiiuse.a(wpad.o) (CONF_GetPadDevices)
/Programs/devkitpro/libogc/lib/wii/libogc.a(wiilaunch.o)
                              /Programs/devkitpro/libogc/lib/wii/libogc.a(system.o) (WII_ReturnToMenu)
/Programs/devkitpro/libogc/lib/wii/libogc.a(lwp_priority.o)
                              /Programs/devkitpro/libogc/lib/wii/libogc.a(system.o) (__lwp_priority_init)
/Programs/devkitpro/libogc/lib/wii/libogc.a(lwp_threadq.o)
                              /Programs/devkitpro/libogc/lib/wii/libogc.a(cond.o) (__lwp_threadqueue_first)
/Programs/devkitpro/libogc/lib/wii/libogc.a(lwp_messages.o)
                              /Programs/devkitpro/libogc/lib/wii/libogc.a(message.o) (__lwpmq_close)
/Programs/devkitpro/libogc/lib/wii/libogc.a(lwp_mutex.o)
                              /Programs/devkitpro/libogc/lib/wii/libogc.a(malloc_lock.o) (__lwp_mutex_initialize)
/Programs/devkitpro/libogc/lib/wii/libogc.a(exception.o)
                              /Programs/devkitpro/libogc/lib/wii/libogc.a(system.o) (__libogc_exit)
/Programs/devkitpro/libogc/lib/wii/libogc.a(irq_handler.o)
                              /Programs/devkitpro/libogc/lib/wii/libogc.a(exception.o) (irq_exceptionhandler)
/Programs/devkitpro/libogc/lib/wii/libogc.a(semaphore.o)
                              /Programs/devkitpro/libogc/lib/wii/libogc.a(system.o) (__lwp_sema_init)
/Programs/devkitpro/libogc/lib/wii/libogc.a(video_asm.o)
                              /Programs/devkitpro/libogc/lib/wii/libogc.a(video.o) (__VIClearFramebuffer)
/Programs/devkitpro/libogc/lib/wii/libogc.a(pad.o)
                              /Programs/devkitpro/libogc/lib/wii/libogc.a(system.o) (__PADDisableRecalibration)
/Programs/devkitpro/libogc/lib/wii/libogc.a(exi.o)
                              /Programs/devkitpro/libogc/lib/wii/libogc.a(system.o) (EXI_Sync)
/Programs/devkitpro/libogc/lib/wii/libogc.a(mutex.o)
                              /Programs/devkitpro/libogc/lib/wii/libogc.a(lock_supp.o) (LWP_MutexInit)
/Programs/devkitpro/libogc/lib/wii/libogc.a(cache_asm.o)
                              /Programs/devkitpro/libogc/lib/wii/libogc.a(system_asm.o) (DCEnable)
/Programs/devkitpro/libogc/lib/wii/libogc.a(decrementer_handler.o)
                              /Programs/devkitpro/libogc/lib/wii/libogc.a(exception.o) (dec_exceptionhandler)
/Programs/devkitpro/libogc/lib/wii/libogc.a(kprintf.o)
                              /Programs/devkitpro/libogc/lib/wii/libogc.a(exception.o) (kprintf)
/Programs/devkitpro/libogc/lib/wii/libogc.a(lwp_sema.o)
                              /Programs/devkitpro/libogc/lib/wii/libogc.a(semaphore.o) (__lwp_sema_flush)
/Programs/devkitpro/libogc/lib/wii/libogc.a(exception_handler.o)
                              /Programs/devkitpro/libogc/lib/wii/libogc.a(exception.o) (exceptionhandler_start)
/Programs/devkitpro/devkitPPC/bin/../lib/gcc/powerpc-gekko/4.2.4/../../../../powerpc-gekko/lib/libm.a(lib_a-s_atan2.o)
                              /Programs/devkitpro/libogc/lib/wii/libwiiuse.a(ir.o) (atan2)
/Programs/devkitpro/devkitPPC/bin/../lib/gcc/powerpc-gekko/4.2.4/../../../../powerpc-gekko/lib/libm.a(lib_a-s_atangent.o)
                              /Programs/devkitpro/devkitPPC/bin/../lib/gcc/powerpc-gekko/4.2.4/../../../../powerpc-gekko/lib/libm.a(lib_a-s_atan2.o) (atangent)
/Programs/devkitpro/devkitPPC/bin/../lib/gcc/powerpc-gekko/4.2.4/../../../../powerpc-gekko/lib/libm.a(lib_a-s_cos.o)
                              /Programs/devkitpro/libogc/lib/wii/libwiiuse.a(ir.o) (cos)
/Programs/devkitpro/devkitPPC/bin/../lib/gcc/powerpc-gekko/4.2.4/../../../../powerpc-gekko/lib/libm.a(lib_a-s_fabs.o)
                              /Programs/devkitpro/devkitPPC/bin/../lib/gcc/powerpc-gekko/4.2.4/../../../../powerpc-gekko/lib/libm.a(lib_a-s_atangent.o) (fabs)
/Programs/devkitpro/devkitPPC/bin/../lib/gcc/powerpc-gekko/4.2.4/../../../../powerpc-gekko/lib/libm.a(lib_a-s_frexp.o)
                              /Programs/devkitpro/devkitPPC/bin/../lib/gcc/powerpc-gekko/4.2.4/../../../../powerpc-gekko/lib/libm.a(lib_a-s_atangent.o) (frexp)
/Programs/devkitpro/devkitPPC/bin/../lib/gcc/powerpc-gekko/4.2.4/../../../../powerpc-gekko/lib/libm.a(lib_a-s_mathcnst.o)
                              /Programs/devkitpro/devkitPPC/bin/../lib/gcc/powerpc-gekko/4.2.4/../../../../powerpc-gekko/lib/libm.a(lib_a-s_atangent.o) (z_rooteps)
/Programs/devkitpro/devkitPPC/bin/../lib/gcc/powerpc-gekko/4.2.4/../../../../powerpc-gekko/lib/libm.a(lib_a-s_numtest.o)
                              /Programs/devkitpro/devkitPPC/bin/../lib/gcc/powerpc-gekko/4.2.4/../../../../powerpc-gekko/lib/libm.a(lib_a-s_fabs.o) (numtest)
/Programs/devkitpro/devkitPPC/bin/../lib/gcc/powerpc-gekko/4.2.4/../../../../powerpc-gekko/lib/libm.a(lib_a-s_sin.o)
                              /Programs/devkitpro/libogc/lib/wii/libwiiuse.a(ir.o) (sin)
/Programs/devkitpro/devkitPPC/bin/../lib/gcc/powerpc-gekko/4.2.4/../../../../powerpc-gekko/lib/libm.a(lib_a-s_sine.o)
                              /Programs/devkitpro/devkitPPC/bin/../lib/gcc/powerpc-gekko/4.2.4/../../../../powerpc-gekko/lib/libm.a(lib_a-s_cos.o) (sine)
/Programs/devkitpro/devkitPPC/bin/../lib/gcc/powerpc-gekko/4.2.4/../../../../powerpc-gekko/lib/libm.a(lib_a-s_sqrt.o)
                              /Programs/devkitpro/libogc/lib/wii/libwiiuse.a(dynamics.o) (sqrt)
/Programs/devkitpro/devkitPPC/bin/../lib/gcc/powerpc-gekko/4.2.4/../../../../powerpc-gekko/lib/libm.a(lib_a-sf_atan.o)
                              /Programs/devkitpro/libogc/lib/wii/libwiiuse.a(dynamics.o) (atanf)
/Programs/devkitpro/devkitPPC/bin/../lib/gcc/powerpc-gekko/4.2.4/../../../../powerpc-gekko/lib/libm.a(lib_a-sf_atan2.o)
                              /Programs/devkitpro/libogc/lib/wii/libwiiuse.a(dynamics.o) (atan2f)
/Programs/devkitpro/devkitPPC/bin/../lib/gcc/powerpc-gekko/4.2.4/../../../../powerpc-gekko/lib/libm.a(lib_a-sf_atangent.o)
                              /Programs/devkitpro/devkitPPC/bin/../lib/gcc/powerpc-gekko/4.2.4/../../../../powerpc-gekko/lib/libm.a(lib_a-sf_atan.o) (atangentf)
/Programs/devkitpro/devkitPPC/bin/../lib/gcc/powerpc-gekko/4.2.4/../../../../powerpc-gekko/lib/libm.a(lib_a-sf_cos.o)
                              /Programs/devkitpro/libogc/lib/wii/libwiiuse.a(ir.o) (cosf)
/Programs/devkitpro/devkitPPC/bin/../lib/gcc/powerpc-gekko/4.2.4/../../../../powerpc-gekko/lib/libm.a(lib_a-sf_fabs.o)
                              /Programs/devkitpro/devkitPPC/bin/../lib/gcc/powerpc-gekko/4.2.4/../../../../powerpc-gekko/lib/libm.a(lib_a-sf_atangent.o) (fabsf)
/Programs/devkitpro/devkitPPC/bin/../lib/gcc/powerpc-gekko/4.2.4/../../../../powerpc-gekko/lib/libm.a(lib_a-sf_fpclassify.o)
                              /Programs/devkitpro/libogc/lib/wii/libwiiuse.a(dynamics.o) (__fpclassifyf)
/Programs/devkitpro/devkitPPC/bin/../lib/gcc/powerpc-gekko/4.2.4/../../../../powerpc-gekko/lib/libm.a(lib_a-sf_frexp.o)
                              /Programs/devkitpro/devkitPPC/bin/../lib/gcc/powerpc-gekko/4.2.4/../../../../powerpc-gekko/lib/libm.a(lib_a-sf_atangent.o) (frexpf)
/Programs/devkitpro/devkitPPC/bin/../lib/gcc/powerpc-gekko/4.2.4/../../../../powerpc-gekko/lib/libm.a(lib_a-sf_isinff.o)
                              /Programs/devkitpro/libogc/lib/wii/libwiiuse.a(dynamics.o) (__isinff)
/Programs/devkitpro/devkitPPC/bin/../lib/gcc/powerpc-gekko/4.2.4/../../../../powerpc-gekko/lib/libm.a(lib_a-sf_isnanf.o)
                              /Programs/devkitpro/libogc/lib/wii/libwiiuse.a(dynamics.o) (__isnanf)
/Programs/devkitpro/devkitPPC/bin/../lib/gcc/powerpc-gekko/4.2.4/../../../../powerpc-gekko/lib/libm.a(lib_a-sf_numtest.o)
                              /Programs/devkitpro/devkitPPC/bin/../lib/gcc/powerpc-gekko/4.2.4/../../../../powerpc-gekko/lib/libm.a(lib_a-sf_atan.o) (numtestf)
/Programs/devkitpro/devkitPPC/bin/../lib/gcc/powerpc-gekko/4.2.4/../../../../powerpc-gekko/lib/libm.a(lib_a-sf_sin.o)
                              /Programs/devkitpro/libogc/lib/wii/libwiiuse.a(ir.o) (sinf)
/Programs/devkitpro/devkitPPC/bin/../lib/gcc/powerpc-gekko/4.2.4/../../../../powerpc-gekko/lib/libm.a(lib_a-sf_sine.o)
                              /Programs/devkitpro/devkitPPC/bin/../lib/gcc/powerpc-gekko/4.2.4/../../../../powerpc-gekko/lib/libm.a(lib_a-sf_cos.o) (sinef)
/Programs/devkitpro/devkitPPC/bin/../lib/gcc/powerpc-gekko/4.2.4/../../../../powerpc-gekko/lib/libm.a(lib_a-sf_sqrt.o)
                              /Programs/devkitpro/libogc/lib/wii/libwiiuse.a(ir.o) (sqrtf)
/Programs/devkitpro/devkitPPC/bin/../lib/gcc/powerpc-gekko/4.2.4/../../../../powerpc-gekko/lib/libm.a(lib_a-s_ispos.o)
                              /Programs/devkitpro/devkitPPC/bin/../lib/gcc/powerpc-gekko/4.2.4/../../../../powerpc-gekko/lib/libm.a(lib_a-s_sqrt.o) (ispos)
/Programs/devkitpro/devkitPPC/bin/../lib/gcc/powerpc-gekko/4.2.4/../../../../powerpc-gekko/lib/libm.a(lib_a-s_ldexp.o)
                              /Programs/devkitpro/devkitPPC/bin/../lib/gcc/powerpc-gekko/4.2.4/../../../../powerpc-gekko/lib/libm.a(lib_a-s_sqrt.o) (ldexp)
/Programs/devkitpro/devkitPPC/bin/../lib/gcc/powerpc-gekko/4.2.4/../../../../powerpc-gekko/lib/libm.a(lib_a-sf_ispos.o)
                              /Programs/devkitpro/devkitPPC/bin/../lib/gcc/powerpc-gekko/4.2.4/../../../../powerpc-gekko/lib/libm.a(lib_a-sf_sqrt.o) (isposf)
/Programs/devkitpro/devkitPPC/bin/../lib/gcc/powerpc-gekko/4.2.4/../../../../powerpc-gekko/lib/libm.a(lib_a-sf_ldexp.o)
                              /Programs/devkitpro/devkitPPC/bin/../lib/gcc/powerpc-gekko/4.2.4/../../../../powerpc-gekko/lib/libm.a(lib_a-sf_sqrt.o) (ldexpf)
/Programs/devkitpro/devkitPPC/bin/../lib/gcc/powerpc-gekko/4.2.4/libgcc.a(_udivdi3.o)
                              /Programs/devkitpro/libogc/lib/wii/libogc.a(system.o) (__udivdi3)
/Programs/devkitpro/devkitPPC/bin/../lib/gcc/powerpc-gekko/4.2.4/../../../../powerpc-gekko/lib/libsysbase.a(abort.o)
                              /Programs/devkitpro/libogc/lib/wii/libogc.a(newlibc.o) (abort)
/Programs/devkitpro/devkitPPC/bin/../lib/gcc/powerpc-gekko/4.2.4/../../../../powerpc-gekko/lib/libsysbase.a(iosupport.o)
                              /Programs/devkitpro/libogc/lib/wii/libisfs.a(isfs.o) (AddDevice)
/Programs/devkitpro/devkitPPC/bin/../lib/gcc/powerpc-gekko/4.2.4/../../../../powerpc-gekko/lib/libsysbase.a(_exit.o)
                              /Programs/devkitpro/devkitPPC/bin/../lib/gcc/powerpc-gekko/4.2.4/../../../../powerpc-gekko/lib/libsysbase.a(abort.o) (_exit)
/Programs/devkitpro/devkitPPC/bin/../lib/gcc/powerpc-gekko/4.2.4/../../../../powerpc-gekko/lib/libsysbase.a(build_argv.o)
                              /Programs/devkitpro/libogc/lib/wii/libogc.a(argv.o) (build_argv)
/Programs/devkitpro/devkitPPC/bin/../lib/gcc/powerpc-gekko/4.2.4/../../../../powerpc-gekko/lib/libsysbase.a(syscall_support.o)
                              /Programs/devkitpro/libogc/lib/wii/libogc.a(system.o) (__syscalls)
/Programs/devkitpro/devkitPPC/bin/../lib/gcc/powerpc-gekko/4.2.4/../../../../powerpc-gekko/lib/libc.a(lib_a-calloc.o)
                              /Programs/devkitpro/libogc/lib/wii/libogc.a(newlibc.o) (calloc)
/Programs/devkitpro/devkitPPC/bin/../lib/gcc/powerpc-gekko/4.2.4/../../../../powerpc-gekko/lib/libc.a(lib_a-callocr.o)
                              /Programs/devkitpro/devkitPPC/bin/../lib/gcc/powerpc-gekko/4.2.4/../../../../powerpc-gekko/lib/libc.a(lib_a-calloc.o) (_calloc_r)
/Programs/devkitpro/devkitPPC/bin/../lib/gcc/powerpc-gekko/4.2.4/../../../../powerpc-gekko/lib/libc.a(lib_a-ctype_.o)
                              /Programs/devkitpro/libogc/lib/wii/libogc.a(ipc.o) (__ctype_ptr)
/Programs/devkitpro/devkitPPC/bin/../lib/gcc/powerpc-gekko/4.2.4/../../../../powerpc-gekko/lib/libc.a(lib_a-errno.o)
                              /Programs/devkitpro/devkitPPC/bin/../lib/gcc/powerpc-gekko/4.2.4/../../../../powerpc-gekko/lib/libm.a(lib_a-s_atangent.o) (__errno)
/Programs/devkitpro/devkitPPC/bin/../lib/gcc/powerpc-gekko/4.2.4/../../../../powerpc-gekko/lib/libc.a(lib_a-exit.o)
                              /Programs/devkitpro/devkitPPC/bin/../lib/gcc/powerpc-gekko/4.2.4/../../../../powerpc-gekko/lib/crtmain.o (exit)
/Programs/devkitpro/devkitPPC/bin/../lib/gcc/powerpc-gekko/4.2.4/../../../../powerpc-gekko/lib/libc.a(lib_a-fclose.o)
                              /Programs/devkitpro/libogc/lib/wii/libmii.a(mii.o) (fclose)
/Programs/devkitpro/devkitPPC/bin/../lib/gcc/powerpc-gekko/4.2.4/../../../../powerpc-gekko/lib/libc.a(lib_a-fflush.o)
                              /Programs/devkitpro/devkitPPC/bin/../lib/gcc/powerpc-gekko/4.2.4/../../../../powerpc-gekko/lib/libc.a(lib_a-fclose.o) (_fflush_r)
/Programs/devkitpro/devkitPPC/bin/../lib/gcc/powerpc-gekko/4.2.4/../../../../powerpc-gekko/lib/libc.a(lib_a-findfp.o)
                              /Programs/devkitpro/devkitPPC/bin/../lib/gcc/powerpc-gekko/4.2.4/../../../../powerpc-gekko/lib/libc.a(lib_a-fclose.o) (__sfp_lock_release)
/Programs/devkitpro/devkitPPC/bin/../lib/gcc/powerpc-gekko/4.2.4/../../../../powerpc-gekko/lib/libc.a(lib_a-fopen.o)
                              /Programs/devkitpro/libogc/lib/wii/libmii.a(mii.o) (fopen)
/Programs/devkitpro/devkitPPC/bin/../lib/gcc/powerpc-gekko/4.2.4/../../../../powerpc-gekko/lib/libc.a(lib_a-fprintf.o)
                              /Programs/devkitpro/libogc/lib/wii/libwiiuse.a(events.o) (fprintf)
/Programs/devkitpro/devkitPPC/bin/../lib/gcc/powerpc-gekko/4.2.4/../../../../powerpc-gekko/lib/libc.a(lib_a-fread.o)
                              /Programs/devkitpro/libogc/lib/wii/libmii.a(mii.o) (fread)
/Programs/devkitpro/devkitPPC/bin/../lib/gcc/powerpc-gekko/4.2.4/../../../../powerpc-gekko/lib/libc.a(lib_a-freer.o)
                              /Programs/devkitpro/libogc/lib/wii/libogc.a(es.o) (_free_r)
/Programs/devkitpro/devkitPPC/bin/../lib/gcc/powerpc-gekko/4.2.4/../../../../powerpc-gekko/lib/libc.a(lib_a-fseek.o)
                              /Programs/devkitpro/devkitPPC/bin/../lib/gcc/powerpc-gekko/4.2.4/../../../../powerpc-gekko/lib/libc.a(lib_a-fopen.o) (_fseek_r)
/Programs/devkitpro/devkitPPC/bin/../lib/gcc/powerpc-gekko/4.2.4/../../../../powerpc-gekko/lib/libc.a(lib_a-fwalk.o)
                              /Programs/devkitpro/devkitPPC/bin/../lib/gcc/powerpc-gekko/4.2.4/../../../../powerpc-gekko/lib/libc.a(lib_a-fflush.o) (_fwalk_reent)
/Programs/devkitpro/devkitPPC/bin/../lib/gcc/powerpc-gekko/4.2.4/../../../../powerpc-gekko/lib/libc.a(lib_a-fwrite.o)
                              /Programs/devkitpro/libogc/lib/wii/libwiiuse.a(ir.o) (fwrite)
/Programs/devkitpro/devkitPPC/bin/../lib/gcc/powerpc-gekko/4.2.4/../../../../powerpc-gekko/lib/libc.a(lib_a-impure.o)
                              /Programs/devkitpro/libogc/lib/wii/libwiiuse.a(ir.o) (_impure_ptr)
/Programs/devkitpro/devkitPPC/bin/../lib/gcc/powerpc-gekko/4.2.4/../../../../powerpc-gekko/lib/libc.a(lib_a-makebuf.o)
                              /Programs/devkitpro/devkitPPC/bin/../lib/gcc/powerpc-gekko/4.2.4/../../../../powerpc-gekko/lib/libc.a(lib_a-fseek.o) (__smakebuf_r)
/Programs/devkitpro/devkitPPC/bin/../lib/gcc/powerpc-gekko/4.2.4/../../../../powerpc-gekko/lib/libc.a(lib_a-malign.o)
                              /Programs/devkitpro/libogc/lib/wii/libogc.a(system.o) (memalign)
/Programs/devkitpro/devkitPPC/bin/../lib/gcc/powerpc-gekko/4.2.4/../../../../powerpc-gekko/lib/libc.a(lib_a-malignr.o)
                              /Programs/devkitpro/libogc/lib/wii/libogc.a(es.o) (_memalign_r)
/Programs/devkitpro/devkitPPC/bin/../lib/gcc/powerpc-gekko/4.2.4/../../../../powerpc-gekko/lib/libc.a(lib_a-malloc.o)
                              /Programs/devkitpro/libogc/lib/wii/libisfs.a(isfs.o) (free)
/Programs/devkitpro/devkitPPC/bin/../lib/gcc/powerpc-gekko/4.2.4/../../../../powerpc-gekko/lib/libc.a(lib_a-mallocr.o)
                              /Programs/devkitpro/devkitPPC/bin/../lib/gcc/powerpc-gekko/4.2.4/../../../../powerpc-gekko/lib/libc.a(lib_a-callocr.o) (_malloc_r)
/Programs/devkitpro/devkitPPC/bin/../lib/gcc/powerpc-gekko/4.2.4/../../../../powerpc-gekko/lib/libc.a(lib_a-memcmp.o)
                              /Programs/devkitpro/libogc/lib/wii/libogc.a(conf.o) (memcmp)
/Programs/devkitpro/devkitPPC/bin/../lib/gcc/powerpc-gekko/4.2.4/../../../../powerpc-gekko/lib/libc.a(lib_a-memcpy.o)
                              main.o (memcpy)
/Programs/devkitpro/devkitPPC/bin/../lib/gcc/powerpc-gekko/4.2.4/../../../../powerpc-gekko/lib/libc.a(lib_a-memmove.o)
                              /Programs/devkitpro/libogc/lib/wii/libogc.a(argv.o) (memmove)
/Programs/devkitpro/devkitPPC/bin/../lib/gcc/powerpc-gekko/4.2.4/../../../../powerpc-gekko/lib/libc.a(lib_a-memset.o)
                              /Programs/devkitpro/libogc/lib/wii/libwiiuse.a(wpad.o) (memset)
/Programs/devkitpro/devkitPPC/bin/../lib/gcc/powerpc-gekko/4.2.4/../../../../powerpc-gekko/lib/libc.a(lib_a-printf.o)
                              main.o (printf)
/Programs/devkitpro/devkitPPC/bin/../lib/gcc/powerpc-gekko/4.2.4/../../../../powerpc-gekko/lib/libc.a(lib_a-puts.o)
                              main.o (puts)
/Programs/devkitpro/devkitPPC/bin/../lib/gcc/powerpc-gekko/4.2.4/../../../../powerpc-gekko/lib/libc.a(lib_a-realloc.o)
                              /Programs/devkitpro/libogc/lib/wii/libisfs.a(isfs.o) (realloc)
/Programs/devkitpro/devkitPPC/bin/../lib/gcc/powerpc-gekko/4.2.4/../../../../powerpc-gekko/lib/libc.a(lib_a-reallocr.o)
                              /Programs/devkitpro/devkitPPC/bin/../lib/gcc/powerpc-gekko/4.2.4/../../../../powerpc-gekko/lib/libc.a(lib_a-realloc.o) (_realloc_r)
/Programs/devkitpro/devkitPPC/bin/../lib/gcc/powerpc-gekko/4.2.4/../../../../powerpc-gekko/lib/libc.a(lib_a-reent.o)
                              /Programs/devkitpro/libogc/lib/wii/libogc.a(newlibc.o) (_wrapup_reent)
/Programs/devkitpro/devkitPPC/bin/../lib/gcc/powerpc-gekko/4.2.4/../../../../powerpc-gekko/lib/libc.a(lib_a-refill.o)
                              /Programs/devkitpro/devkitPPC/bin/../lib/gcc/powerpc-gekko/4.2.4/../../../../powerpc-gekko/lib/libc.a(lib_a-fread.o) (__srefill_r)
/Programs/devkitpro/devkitPPC/bin/../lib/gcc/powerpc-gekko/4.2.4/../../../../powerpc-gekko/lib/libc.a(lib_a-setvbuf.o)
                              /Programs/devkitpro/libogc/lib/wii/libogc.a(console.o) (setvbuf)
/Programs/devkitpro/devkitPPC/bin/../lib/gcc/powerpc-gekko/4.2.4/../../../../powerpc-gekko/lib/libc.a(lib_a-snprintf.o)
                              /Programs/devkitpro/libogc/lib/wii/libogc.a(usb.o) (snprintf)
/Programs/devkitpro/devkitPPC/bin/../lib/gcc/powerpc-gekko/4.2.4/../../../../powerpc-gekko/lib/libc.a(lib_a-sprintf.o)
                              /Programs/devkitpro/libogc/lib/wii/libisfs.a(isfs.o) (sprintf)
/Programs/devkitpro/devkitPPC/bin/../lib/gcc/powerpc-gekko/4.2.4/../../../../powerpc-gekko/lib/libc.a(lib_a-stdio.o)
                              /Programs/devkitpro/devkitPPC/bin/../lib/gcc/powerpc-gekko/4.2.4/../../../../powerpc-gekko/lib/libc.a(lib_a-findfp.o) (__sclose)
/Programs/devkitpro/devkitPPC/bin/../lib/gcc/powerpc-gekko/4.2.4/../../../../powerpc-gekko/lib/libc.a(lib_a-strchr.o)
                              /Programs/devkitpro/libogc/lib/wii/libisfs.a(isfs.o) (strchr)
/Programs/devkitpro/devkitPPC/bin/../lib/gcc/powerpc-gekko/4.2.4/../../../../powerpc-gekko/lib/libc.a(lib_a-strcmp.o)
                              /Programs/devkitpro/libogc/lib/wii/libisfs.a(isfs.o) (strcmp)
/Programs/devkitpro/devkitPPC/bin/../lib/gcc/powerpc-gekko/4.2.4/../../../../powerpc-gekko/lib/libc.a(lib_a-strcpy.o)
                              /Programs/devkitpro/libogc/lib/wii/libogc.a(wiilaunch.o) (strcpy)
/Programs/devkitpro/devkitPPC/bin/../lib/gcc/powerpc-gekko/4.2.4/../../../../powerpc-gekko/lib/libc.a(lib_a-strdup.o)
                              /Programs/devkitpro/libogc/lib/wii/libisfs.a(isfs.o) (strdup)
/Programs/devkitpro/devkitPPC/bin/../lib/gcc/powerpc-gekko/4.2.4/../../../../powerpc-gekko/lib/libc.a(lib_a-strdup_r.o)
                              /Programs/devkitpro/devkitPPC/bin/../lib/gcc/powerpc-gekko/4.2.4/../../../../powerpc-gekko/lib/libc.a(lib_a-strdup.o) (_strdup_r)
/Programs/devkitpro/devkitPPC/bin/../lib/gcc/powerpc-gekko/4.2.4/../../../../powerpc-gekko/lib/libc.a(lib_a-strlen.o)
                              /Programs/devkitpro/libogc/lib/wii/libisfs.a(isfs.o) (strlen)
/Programs/devkitpro/devkitPPC/bin/../lib/gcc/powerpc-gekko/4.2.4/../../../../powerpc-gekko/lib/libc.a(lib_a-strncasecmp.o)
                              /Programs/devkitpro/libogc/lib/wii/libisfs.a(isfs.o) (strncasecmp)
/Programs/devkitpro/devkitPPC/bin/../lib/gcc/powerpc-gekko/4.2.4/../../../../powerpc-gekko/lib/libc.a(lib_a-strncmp.o)
                              /Programs/devkitpro/libogc/lib/wii/libisfs.a(isfs.o) (strncmp)
/Programs/devkitpro/devkitPPC/bin/../lib/gcc/powerpc-gekko/4.2.4/../../../../powerpc-gekko/lib/libc.a(lib_a-strncpy.o)
                              /Programs/devkitpro/libogc/lib/wii/libisfs.a(isfs.o) (strncpy)
/Programs/devkitpro/devkitPPC/bin/../lib/gcc/powerpc-gekko/4.2.4/../../../../powerpc-gekko/lib/libc.a(lib_a-strnlen.o)
                              /Programs/devkitpro/libogc/lib/wii/libisfs.a(isfs.o) (strnlen)
/Programs/devkitpro/devkitPPC/bin/../lib/gcc/powerpc-gekko/4.2.4/../../../../powerpc-gekko/lib/libc.a(lib_a-strtoul.o)
                              /Programs/devkitpro/libogc/lib/wii/libogc.a(es.o) (_strtoul_r)
/Programs/devkitpro/devkitPPC/bin/../lib/gcc/powerpc-gekko/4.2.4/../../../../powerpc-gekko/lib/libc.a(lib_a-strtoull_r.o)
                              /Programs/devkitpro/libogc/lib/wii/libogc.a(es.o) (_strtoull_r)
/Programs/devkitpro/devkitPPC/bin/../lib/gcc/powerpc-gekko/4.2.4/../../../../powerpc-gekko/lib/libc.a(lib_a-syswrite.o)
                              /Programs/devkitpro/libogc/lib/wii/libogc.a(kprintf.o) (write)
/Programs/devkitpro/devkitPPC/bin/../lib/gcc/powerpc-gekko/4.2.4/../../../../powerpc-gekko/lib/libc.a(lib_a-vfprintf.o)
                              /Programs/devkitpro/devkitPPC/bin/../lib/gcc/powerpc-gekko/4.2.4/../../../../powerpc-gekko/lib/libc.a(lib_a-fprintf.o) (_vfprintf_r)
/Programs/devkitpro/devkitPPC/bin/../lib/gcc/powerpc-gekko/4.2.4/../../../../powerpc-gekko/lib/libc.a(lib_a-wcrtomb.o)
                              /Programs/devkitpro/devkitPPC/bin/../lib/gcc/powerpc-gekko/4.2.4/../../../../powerpc-gekko/lib/libc.a(lib_a-vfprintf.o) (_wcrtomb_r)
/Programs/devkitpro/devkitPPC/bin/../lib/gcc/powerpc-gekko/4.2.4/../../../../powerpc-gekko/lib/libc.a(lib_a-wcsrtombs.o)
                              /Programs/devkitpro/devkitPPC/bin/../lib/gcc/powerpc-gekko/4.2.4/../../../../powerpc-gekko/lib/libc.a(lib_a-vfprintf.o) (_wcsrtombs_r)
/Programs/devkitpro/devkitPPC/bin/../lib/gcc/powerpc-gekko/4.2.4/../../../../powerpc-gekko/lib/libc.a(lib_a-wctomb_r.o)
                              /Programs/devkitpro/devkitPPC/bin/../lib/gcc/powerpc-gekko/4.2.4/../../../../powerpc-gekko/lib/libc.a(lib_a-wcrtomb.o) (_wctomb_r)
/Programs/devkitpro/devkitPPC/bin/../lib/gcc/powerpc-gekko/4.2.4/../../../../powerpc-gekko/lib/libc.a(lib_a-wsetup.o)
                              /Programs/devkitpro/devkitPPC/bin/../lib/gcc/powerpc-gekko/4.2.4/../../../../powerpc-gekko/lib/libc.a(lib_a-vfprintf.o) (__swsetup_r)
/Programs/devkitpro/devkitPPC/bin/../lib/gcc/powerpc-gekko/4.2.4/../../../../powerpc-gekko/lib/libc.a(lib_a-__call_atexit.o)
                              /Programs/devkitpro/devkitPPC/bin/../lib/gcc/powerpc-gekko/4.2.4/../../../../powerpc-gekko/lib/libc.a(lib_a-exit.o) (__call_exitprocs)
/Programs/devkitpro/devkitPPC/bin/../lib/gcc/powerpc-gekko/4.2.4/../../../../powerpc-gekko/lib/libc.a(lib_a-dtoa.o)
                              /Programs/devkitpro/devkitPPC/bin/../lib/gcc/powerpc-gekko/4.2.4/../../../../powerpc-gekko/lib/libc.a(lib_a-vfprintf.o) (_dtoa_r)
/Programs/devkitpro/devkitPPC/bin/../lib/gcc/powerpc-gekko/4.2.4/../../../../powerpc-gekko/lib/libc.a(lib_a-flags.o)
                              /Programs/devkitpro/devkitPPC/bin/../lib/gcc/powerpc-gekko/4.2.4/../../../../powerpc-gekko/lib/libc.a(lib_a-fopen.o) (__sflags)
/Programs/devkitpro/devkitPPC/bin/../lib/gcc/powerpc-gekko/4.2.4/../../../../powerpc-gekko/lib/libc.a(lib_a-fvwrite.o)
                              /Programs/devkitpro/devkitPPC/bin/../lib/gcc/powerpc-gekko/4.2.4/../../../../powerpc-gekko/lib/libc.a(lib_a-fwrite.o) (__sfvwrite_r)
/Programs/devkitpro/devkitPPC/bin/../lib/gcc/powerpc-gekko/4.2.4/../../../../powerpc-gekko/lib/libc.a(lib_a-locale.o)
                              /Programs/devkitpro/devkitPPC/bin/../lib/gcc/powerpc-gekko/4.2.4/../../../../powerpc-gekko/lib/libc.a(lib_a-vfprintf.o) (_localeconv_r)
/Programs/devkitpro/devkitPPC/bin/../lib/gcc/powerpc-gekko/4.2.4/../../../../powerpc-gekko/lib/libc.a(lib_a-mbtowc_r.o)
                              /Programs/devkitpro/devkitPPC/bin/../lib/gcc/powerpc-gekko/4.2.4/../../../../powerpc-gekko/lib/libc.a(lib_a-vfprintf.o) (_mbtowc_r)
/Programs/devkitpro/devkitPPC/bin/../lib/gcc/powerpc-gekko/4.2.4/../../../../powerpc-gekko/lib/libc.a(lib_a-memchr.o)
                              /Programs/devkitpro/devkitPPC/bin/../lib/gcc/powerpc-gekko/4.2.4/../../../../powerpc-gekko/lib/libc.a(lib_a-vfprintf.o) (memchr)
/Programs/devkitpro/devkitPPC/bin/../lib/gcc/powerpc-gekko/4.2.4/../../../../powerpc-gekko/lib/libc.a(lib_a-mprec.o)
                              /Programs/devkitpro/devkitPPC/bin/../lib/gcc/powerpc-gekko/4.2.4/../../../../powerpc-gekko/lib/libc.a(lib_a-dtoa.o) (_Bfree)
/Programs/devkitpro/devkitPPC/bin/../lib/gcc/powerpc-gekko/4.2.4/../../../../powerpc-gekko/lib/libc.a(lib_a-s_isinfd.o)
                              /Programs/devkitpro/devkitPPC/bin/../lib/gcc/powerpc-gekko/4.2.4/../../../../powerpc-gekko/lib/libc.a(lib_a-vfprintf.o) (__isinfd)
/Programs/devkitpro/devkitPPC/bin/../lib/gcc/powerpc-gekko/4.2.4/../../../../powerpc-gekko/lib/libc.a(lib_a-s_isnand.o)
                              /Programs/devkitpro/devkitPPC/bin/../lib/gcc/powerpc-gekko/4.2.4/../../../../powerpc-gekko/lib/libc.a(lib_a-vfprintf.o) (__isnand)
/Programs/devkitpro/devkitPPC/bin/../lib/gcc/powerpc-gekko/4.2.4/../../../../powerpc-gekko/lib/libsysbase.a(close.o)
                              /Programs/devkitpro/devkitPPC/bin/../lib/gcc/powerpc-gekko/4.2.4/../../../../powerpc-gekko/lib/libc.a(lib_a-stdio.o) (_close_r)
/Programs/devkitpro/devkitPPC/bin/../lib/gcc/powerpc-gekko/4.2.4/../../../../powerpc-gekko/lib/libsysbase.a(fstat.o)
                              /Programs/devkitpro/devkitPPC/bin/../lib/gcc/powerpc-gekko/4.2.4/../../../../powerpc-gekko/lib/libc.a(lib_a-fseek.o) (_fstat_r)
/Programs/devkitpro/devkitPPC/bin/../lib/gcc/powerpc-gekko/4.2.4/../../../../powerpc-gekko/lib/libsysbase.a(isatty.o)
                              /Programs/devkitpro/devkitPPC/bin/../lib/gcc/powerpc-gekko/4.2.4/../../../../powerpc-gekko/lib/libc.a(lib_a-makebuf.o) (isatty)
/Programs/devkitpro/devkitPPC/bin/../lib/gcc/powerpc-gekko/4.2.4/../../../../powerpc-gekko/lib/libsysbase.a(lseek.o)
                              /Programs/devkitpro/devkitPPC/bin/../lib/gcc/powerpc-gekko/4.2.4/../../../../powerpc-gekko/lib/libc.a(lib_a-stdio.o) (_lseek_r)
/Programs/devkitpro/devkitPPC/bin/../lib/gcc/powerpc-gekko/4.2.4/../../../../powerpc-gekko/lib/libsysbase.a(open.o)
                              /Programs/devkitpro/devkitPPC/bin/../lib/gcc/powerpc-gekko/4.2.4/../../../../powerpc-gekko/lib/libc.a(lib_a-fopen.o) (_open_r)
/Programs/devkitpro/devkitPPC/bin/../lib/gcc/powerpc-gekko/4.2.4/../../../../powerpc-gekko/lib/libsysbase.a(read.o)
                              /Programs/devkitpro/devkitPPC/bin/../lib/gcc/powerpc-gekko/4.2.4/../../../../powerpc-gekko/lib/libc.a(lib_a-stdio.o) (_read_r)
/Programs/devkitpro/devkitPPC/bin/../lib/gcc/powerpc-gekko/4.2.4/../../../../powerpc-gekko/lib/libsysbase.a(sbrk.o)
                              /Programs/devkitpro/devkitPPC/bin/../lib/gcc/powerpc-gekko/4.2.4/../../../../powerpc-gekko/lib/libc.a(lib_a-freer.o) (_sbrk_r)
/Programs/devkitpro/devkitPPC/bin/../lib/gcc/powerpc-gekko/4.2.4/../../../../powerpc-gekko/lib/libsysbase.a(write.o)
                              /Programs/devkitpro/devkitPPC/bin/../lib/gcc/powerpc-gekko/4.2.4/../../../../powerpc-gekko/lib/libc.a(lib_a-stdio.o) (_write_r)
/Programs/devkitpro/devkitPPC/bin/../lib/gcc/powerpc-gekko/4.2.4/../../../../powerpc-gekko/lib/libsysbase.a(flock.o)
                              /Programs/devkitpro/devkitPPC/bin/../lib/gcc/powerpc-gekko/4.2.4/../../../../powerpc-gekko/lib/libc.a(lib_a-fclose.o) (__funlockfile)
/Programs/devkitpro/devkitPPC/bin/../lib/gcc/powerpc-gekko/4.2.4/../../../../powerpc-gekko/lib/libsysbase.a(handle_manager.o)
                              /Programs/devkitpro/devkitPPC/bin/../lib/gcc/powerpc-gekko/4.2.4/../../../../powerpc-gekko/lib/libsysbase.a(close.o) (__get_handle)
/Programs/devkitpro/devkitPPC/bin/../lib/gcc/powerpc-gekko/4.2.4/libgcc.a(_umoddi3.o)
                              /Programs/devkitpro/devkitPPC/bin/../lib/gcc/powerpc-gekko/4.2.4/../../../../powerpc-gekko/lib/libc.a(lib_a-strtoull_r.o) (__umoddi3)

Allocating common symbols
Common symbol       size              file

_wd_sync_count      0x4               /Programs/devkitpro/libogc/lib/wii/libogc.a(lwp_watchdog.o)
_context_switch_want
                    0x4               /Programs/devkitpro/libogc/lib/wii/libogc.a(lwp_threads.o)
l2cap_active_pcbs   0x4               /Programs/devkitpro/libogc/lib/wii/libbte.a(l2cap.o)
_wd_sync_level      0x4               /Programs/devkitpro/libogc/lib/wii/libogc.a(lwp_watchdog.o)
_exceptionhandlertable
                    0x3c              /Programs/devkitpro/libogc/lib/wii/libogc.a(exception.o)
_thread_dispatch_disable_level
                    0x4               /Programs/devkitpro/libogc/lib/wii/libogc.a(lwp_threads.o)
_lwp_sema_objects   0x28              /Programs/devkitpro/libogc/lib/wii/libogc.a(semaphore.o)
_lwp_cond_objects   0x28              /Programs/devkitpro/libogc/lib/wii/libogc.a(cond.o)
_prio_bitmap        0x40              /Programs/devkitpro/libogc/lib/wii/libogc.a(lwp_priority.o)
_wd_ticks_queue     0xc               /Programs/devkitpro/libogc/lib/wii/libogc.a(lwp_watchdog.o)
__outstr            0x100             /Programs/devkitpro/libogc/lib/wii/libogc.a(kprintf.o)
_wd_ticks_since_boot
                    0x4               /Programs/devkitpro/libogc/lib/wii/libogc.a(lwp_watchdog.o)
_sys_state_curr     0x4               /Programs/devkitpro/libogc/lib/wii/libogc.a(sys_state.o)
_lwp_thr_ready      0xc00             /Programs/devkitpro/libogc/lib/wii/libogc.a(lwp_threads.o)
libc_globl_reent    0x400             /Programs/devkitpro/libogc/lib/wii/libogc.a(newlibc.o)
sigid_nxt           0x1               /Programs/devkitpro/libogc/lib/wii/libbte.a(l2cap.o)
_prio_major_bitmap  0x4               /Programs/devkitpro/libogc/lib/wii/libogc.a(lwp_priority.o)
__wkspace_heap      0x1c              /Programs/devkitpro/libogc/lib/wii/libogc.a(lwp_wkspace.o)
sramcntrl           0x50              /Programs/devkitpro/libogc/lib/wii/libogc.a(system.o)
_lwp_mqbox_objects  0x28              /Programs/devkitpro/libogc/lib/wii/libogc.a(message.o)
libc_reentrant      0x4               /Programs/devkitpro/libogc/lib/wii/libogc.a(newlibc.o)
_lwp_wd_timeslice   0x28              /Programs/devkitpro/libogc/lib/wii/libogc.a(lwp_threads.o)
_lwp_thr_objects    0x28              /Programs/devkitpro/libogc/lib/wii/libogc.a(lwp.o)
_lwp_mutex_objects  0x28              /Programs/devkitpro/libogc/lib/wii/libogc.a(mutex.o)
core_context        0x2d0             /Programs/devkitpro/libogc/lib/wii/libogc.a(lwp_threads.o)
_lwp_tqueue_objects
                    0x28              /Programs/devkitpro/libogc/lib/wii/libogc.a(lwp.o)

Discarded input sections

 .text          0x00000000        0x0 /Programs/devkitpro/devkitPPC/bin/../lib/gcc/powerpc-gekko/4.2.4/ecrti.o
 .data          0x00000000        0x0 /Programs/devkitpro/devkitPPC/bin/../lib/gcc/powerpc-gekko/4.2.4/ecrti.o
 .bss           0x00000000        0x0 /Programs/devkitpro/devkitPPC/bin/../lib/gcc/powerpc-gekko/4.2.4/ecrti.o
 .got           0x00000000        0x0 /Programs/devkitpro/devkitPPC/bin/../lib/gcc/powerpc-gekko/4.2.4/ecrti.o
 .got1          0x00000000        0x0 /Programs/devkitpro/devkitPPC/bin/../lib/gcc/powerpc-gekko/4.2.4/ecrti.o
 .got2          0x00000000        0x0 /Programs/devkitpro/devkitPPC/bin/../lib/gcc/powerpc-gekko/4.2.4/ecrti.o
 .fixup         0x00000000        0x0 /Programs/devkitpro/devkitPPC/bin/../lib/gcc/powerpc-gekko/4.2.4/ecrti.o
 .sbss          0x00000000        0x0 /Programs/devkitpro/devkitPPC/bin/../lib/gcc/powerpc-gekko/4.2.4/ecrti.o
 .sbss2         0x00000000        0x0 /Programs/devkitpro/devkitPPC/bin/../lib/gcc/powerpc-gekko/4.2.4/ecrti.o
 .gcc_except_table
                0x00000000        0x0 /Programs/devkitpro/devkitPPC/bin/../lib/gcc/powerpc-gekko/4.2.4/ecrti.o
 .data          0x00000000        0x0 /Programs/devkitpro/devkitPPC/bin/../lib/gcc/powerpc-gekko/4.2.4/../../../../powerpc-gekko/lib/crtmain.o
 .bss           0x00000000        0x0 /Programs/devkitpro/devkitPPC/bin/../lib/gcc/powerpc-gekko/4.2.4/../../../../powerpc-gekko/lib/crtmain.o
 .text          0x00000000        0x0 main.o
 .data          0x00000000        0x0 main.o
 .bss           0x00000000        0x0 main.o
 .text          0x00000000        0x0 /Programs/devkitpro/libogc/lib/wii/libmii.a(mii.o)
 .data          0x00000000        0x0 /Programs/devkitpro/libogc/lib/wii/libmii.a(mii.o)
 .bss           0x00000000        0x0 /Programs/devkitpro/libogc/lib/wii/libmii.a(mii.o)
 .text          0x00000000        0x0 /Programs/devkitpro/libogc/lib/wii/libisfs.a(certs.bin.o)
 .data          0x00000000        0x0 /Programs/devkitpro/libogc/lib/wii/libisfs.a(certs.bin.o)
 .bss           0x00000000        0x0 /Programs/devkitpro/libogc/lib/wii/libisfs.a(certs.bin.o)
 .text          0x00000000        0x0 /Programs/devkitpro/libogc/lib/wii/libisfs.a(su_tik.bin.o)
 .data          0x00000000        0x0 /Programs/devkitpro/libogc/lib/wii/libisfs.a(su_tik.bin.o)
 .bss           0x00000000        0x0 /Programs/devkitpro/libogc/lib/wii/libisfs.a(su_tik.bin.o)
 .text          0x00000000        0x0 /Programs/devkitpro/libogc/lib/wii/libisfs.a(su_tmd.bin.o)
 .data          0x00000000        0x0 /Programs/devkitpro/libogc/lib/wii/libisfs.a(su_tmd.bin.o)
 .bss           0x00000000        0x0 /Programs/devkitpro/libogc/lib/wii/libisfs.a(su_tmd.bin.o)
 .text          0x00000000        0x0 /Programs/devkitpro/libogc/lib/wii/libwiiuse.a(wpad.o)
 .data          0x00000000        0x0 /Programs/devkitpro/libogc/lib/wii/libwiiuse.a(wpad.o)
 .bss           0x00000000        0x0 /Programs/devkitpro/libogc/lib/wii/libwiiuse.a(wpad.o)
 .text.WPAD_DroppedEvents
                0x00000000        0x0 /Programs/devkitpro/libogc/lib/wii/libwiiuse.a(wpad.o)
 .text.WPAD_GetStatus
                0x00000000        0x0 /Programs/devkitpro/libogc/lib/wii/libwiiuse.a(wpad.o)
 .text.WPAD_Probe
                0x00000000        0x0 /Programs/devkitpro/libogc/lib/wii/libwiiuse.a(wpad.o)
 .text.WPAD_SetEventBufs
                0x00000000        0x0 /Programs/devkitpro/libogc/lib/wii/libwiiuse.a(wpad.o)
 .text.WPAD_SetPowerButtonCallback
                0x00000000        0x0 /Programs/devkitpro/libogc/lib/wii/libwiiuse.a(wpad.o)
 .text.WPAD_SetBatteryDeadCallback
                0x00000000        0x0 /Programs/devkitpro/libogc/lib/wii/libwiiuse.a(wpad.o)
 .text.WPAD_SetIdleTimeout
                0x00000000        0x0 /Programs/devkitpro/libogc/lib/wii/libwiiuse.a(wpad.o)
 .text.WPAD_SetIdleThresholds
                0x00000000        0x0 /Programs/devkitpro/libogc/lib/wii/libwiiuse.a(wpad.o)
 .text.WPAD_Data
                0x00000000        0x0 /Programs/devkitpro/libogc/lib/wii/libwiiuse.a(wpad.o)
 .text.WPAD_ButtonsUp
                0x00000000        0x0 /Programs/devkitpro/libogc/lib/wii/libwiiuse.a(wpad.o)
 .text.WPAD_ButtonsHeld
                0x00000000        0x0 /Programs/devkitpro/libogc/lib/wii/libwiiuse.a(wpad.o)
 .text.WPAD_IR  0x00000000        0x0 /Programs/devkitpro/libogc/lib/wii/libwiiuse.a(wpad.o)
 .text.WPAD_Orientation
                0x00000000        0x0 /Programs/devkitpro/libogc/lib/wii/libwiiuse.a(wpad.o)
 .text.WPAD_GForce
                0x00000000        0x0 /Programs/devkitpro/libogc/lib/wii/libwiiuse.a(wpad.o)
 .text.WPAD_Accel
                0x00000000        0x0 /Programs/devkitpro/libogc/lib/wii/libwiiuse.a(wpad.o)
 .text.WPAD_Expansion
                0x00000000        0x0 /Programs/devkitpro/libogc/lib/wii/libwiiuse.a(wpad.o)
 .text.WPAD_Rumble
                0x00000000        0x0 /Programs/devkitpro/libogc/lib/wii/libwiiuse.a(wpad.o)
 .text.WPAD_Disconnect
                0x00000000        0x0 /Programs/devkitpro/libogc/lib/wii/libwiiuse.a(wpad.o)
 .text.WPAD_SetVRes
                0x00000000        0x0 /Programs/devkitpro/libogc/lib/wii/libwiiuse.a(wpad.o)
 .text.WPAD_SetDataFormat
                0x00000000        0x0 /Programs/devkitpro/libogc/lib/wii/libwiiuse.a(wpad.o)
 .text.WPAD_Flush
                0x00000000        0x0 /Programs/devkitpro/libogc/lib/wii/libwiiuse.a(wpad.o)
 .text          0x00000000        0x0 /Programs/devkitpro/libogc/lib/wii/libwiiuse.a(dynamics.o)
 .data          0x00000000        0x0 /Programs/devkitpro/libogc/lib/wii/libwiiuse.a(dynamics.o)
 .bss           0x00000000        0x0 /Programs/devkitpro/libogc/lib/wii/libwiiuse.a(dynamics.o)
 .text          0x00000000        0x0 /Programs/devkitpro/libogc/lib/wii/libwiiuse.a(io_wii.o)
 .data          0x00000000        0x0 /Programs/devkitpro/libogc/lib/wii/libwiiuse.a(io_wii.o)
 .bss           0x00000000        0x0 /Programs/devkitpro/libogc/lib/wii/libwiiuse.a(io_wii.o)
 .text.wiiuse_sensorbar_enable
                0x00000000        0x0 /Programs/devkitpro/libogc/lib/wii/libwiiuse.a(io_wii.o)
 .text          0x00000000        0x0 /Programs/devkitpro/libogc/lib/wii/libwiiuse.a(ir.o)
 .data          0x00000000        0x0 /Programs/devkitpro/libogc/lib/wii/libwiiuse.a(ir.o)
 .bss           0x00000000        0x0 /Programs/devkitpro/libogc/lib/wii/libwiiuse.a(ir.o)
 .text.wiiuse_set_ir_vres
                0x00000000        0x0 /Programs/devkitpro/libogc/lib/wii/libwiiuse.a(ir.o)
 .text          0x00000000        0x0 /Programs/devkitpro/libogc/lib/wii/libwiiuse.a(wiiuse.o)
 .data          0x00000000        0x0 /Programs/devkitpro/libogc/lib/wii/libwiiuse.a(wiiuse.o)
 .bss           0x00000000        0x0 /Programs/devkitpro/libogc/lib/wii/libwiiuse.a(wiiuse.o)
 .text.wiiuse_toggle_rumble
                0x00000000        0x0 /Programs/devkitpro/libogc/lib/wii/libwiiuse.a(wiiuse.o)
 .text.wiiuse_rumble
                0x00000000        0x0 /Programs/devkitpro/libogc/lib/wii/libwiiuse.a(wiiuse.o)
 .text.wiiuse_write_streamdata
                0x00000000        0x0 /Programs/devkitpro/libogc/lib/wii/libwiiuse.a(wiiuse.o)
 .text          0x00000000        0x0 /Programs/devkitpro/libogc/lib/wii/libwiiuse.a(events.o)
 .data          0x00000000        0x0 /Programs/devkitpro/libogc/lib/wii/libwiiuse.a(events.o)
 .bss           0x00000000        0x0 /Programs/devkitpro/libogc/lib/wii/libwiiuse.a(events.o)
 .text.idle_cycle
                0x00000000        0x0 /Programs/devkitpro/libogc/lib/wii/libwiiuse.a(events.o)
 .text          0x00000000        0x0 /Programs/devkitpro/libogc/lib/wii/libwiiuse.a(guitar_hero_3.o)
 .data          0x00000000        0x0 /Programs/devkitpro/libogc/lib/wii/libwiiuse.a(guitar_hero_3.o)
 .bss           0x00000000        0x0 /Programs/devkitpro/libogc/lib/wii/libwiiuse.a(guitar_hero_3.o)
 .text          0x00000000        0x0 /Programs/devkitpro/libogc/lib/wii/libwiiuse.a(io.o)
 .data          0x00000000        0x0 /Programs/devkitpro/libogc/lib/wii/libwiiuse.a(io.o)
 .bss           0x00000000        0x0 /Programs/devkitpro/libogc/lib/wii/libwiiuse.a(io.o)
 .text          0x00000000        0x0 /Programs/devkitpro/libogc/lib/wii/libwiiuse.a(nunchuk.o)
 .data          0x00000000        0x0 /Programs/devkitpro/libogc/lib/wii/libwiiuse.a(nunchuk.o)
 .bss           0x00000000        0x0 /Programs/devkitpro/libogc/lib/wii/libwiiuse.a(nunchuk.o)
 .text          0x00000000        0x0 /Programs/devkitpro/libogc/lib/wii/libwiiuse.a(wiiboard.o)
 .data          0x00000000        0x0 /Programs/devkitpro/libogc/lib/wii/libwiiuse.a(wiiboard.o)
 .bss           0x00000000        0x0 /Programs/devkitpro/libogc/lib/wii/libwiiuse.a(wiiboard.o)
 .text          0x00000000        0x0 /Programs/devkitpro/libogc/lib/wii/libwiiuse.a(classic.o)
 .data          0x00000000        0x0 /Programs/devkitpro/libogc/lib/wii/libwiiuse.a(classic.o)
 .bss           0x00000000        0x0 /Programs/devkitpro/libogc/lib/wii/libwiiuse.a(classic.o)
 .text          0x00000000        0x0 /Programs/devkitpro/libogc/lib/wii/libbte.a(bte.o)
 .data          0x00000000        0x0 /Programs/devkitpro/libogc/lib/wii/libbte.a(bte.o)
 .bss           0x00000000        0x0 /Programs/devkitpro/libogc/lib/wii/libbte.a(bte.o)
 .text.pin_req  0x00000000        0x0 /Programs/devkitpro/libogc/lib/wii/libbte.a(bte.o)
 .text.link_key_not
                0x00000000        0x0 /Programs/devkitpro/libogc/lib/wii/libbte.a(bte.o)
 .text.bte_sendmessage
                0x00000000        0x0 /Programs/devkitpro/libogc/lib/wii/libbte.a(bte.o)
 .text.bte_inquiry_ex
                0x00000000        0x0 /Programs/devkitpro/libogc/lib/wii/libbte.a(bte.o)
 .text.bte_inquiry
                0x00000000        0x0 /Programs/devkitpro/libogc/lib/wii/libbte.a(bte.o)
 .text.bte_inquiry_complete
                0x00000000        0x0 /Programs/devkitpro/libogc/lib/wii/libbte.a(bte.o)
 .text          0x00000000        0x0 /Programs/devkitpro/libogc/lib/wii/libbte.a(hci.o)
 .data          0x00000000        0x0 /Programs/devkitpro/libogc/lib/wii/libbte.a(hci.o)
 .bss           0x00000000        0x0 /Programs/devkitpro/libogc/lib/wii/libbte.a(hci.o)
 .text.hci_pin_req
                0x00000000        0x0 /Programs/devkitpro/libogc/lib/wii/libbte.a(hci.o)
 .text.hci_link_key_not
                0x00000000        0x0 /Programs/devkitpro/libogc/lib/wii/libbte.a(hci.o)
 .text.hci_conn_req
                0x00000000        0x0 /Programs/devkitpro/libogc/lib/wii/libbte.a(hci.o)
 .text.lp_is_connected
                0x00000000        0x0 /Programs/devkitpro/libogc/lib/wii/libbte.a(hci.o)
 .text.hci_reg_dev_info
                0x00000000        0x0 /Programs/devkitpro/libogc/lib/wii/libbte.a(hci.o)
 .text.hci_set_hc_to_h_fc
                0x00000000        0x0 /Programs/devkitpro/libogc/lib/wii/libbte.a(hci.o)
 .text.hci_read_current_lap
                0x00000000        0x0 /Programs/devkitpro/libogc/lib/wii/libbte.a(hci.o)
 .text.hci_write_stored_link_key
                0x00000000        0x0 /Programs/devkitpro/libogc/lib/wii/libbte.a(hci.o)
 .text.hci_reject_connection_request
                0x00000000        0x0 /Programs/devkitpro/libogc/lib/wii/libbte.a(hci.o)
 .text.hci_set_event_mask
                0x00000000        0x0 /Programs/devkitpro/libogc/lib/wii/libbte.a(hci.o)
 .text.hci_exit_periodic_inquiry
                0x00000000        0x0 /Programs/devkitpro/libogc/lib/wii/libbte.a(hci.o)
 .text.hci_set_event_filter
                0x00000000        0x0 /Programs/devkitpro/libogc/lib/wii/libbte.a(hci.o)
 .text.hci_pin_code_request_reply
                0x00000000        0x0 /Programs/devkitpro/libogc/lib/wii/libbte.a(hci.o)
 .text.hci_inquiry
                0x00000000        0x0 /Programs/devkitpro/libogc/lib/wii/libbte.a(hci.o)
 .text.lp_connect_req
                0x00000000        0x0 /Programs/devkitpro/libogc/lib/wii/libbte.a(hci.o)
 .text.hci_sniff_mode
                0x00000000        0x0 /Programs/devkitpro/libogc/lib/wii/libbte.a(hci.o)
 .text.hci_read_remote_name
                0x00000000        0x0 /Programs/devkitpro/libogc/lib/wii/libbte.a(hci.o)
 .text.hci_periodic_inquiry
                0x00000000        0x0 /Programs/devkitpro/libogc/lib/wii/libbte.a(hci.o)
 .sbss.hci_tmp_key
                0x00000000        0x0 /Programs/devkitpro/libogc/lib/wii/libbte.a(hci.o)
 .text          0x00000000        0x0 /Programs/devkitpro/libogc/lib/wii/libbte.a(l2cap.o)
 .data          0x00000000        0x0 /Programs/devkitpro/libogc/lib/wii/libbte.a(l2cap.o)
 .bss           0x00000000        0x0 /Programs/devkitpro/libogc/lib/wii/libbte.a(l2cap.o)
 .text.l2cap_timeout_ind
                0x00000000        0x0 /Programs/devkitpro/libogc/lib/wii/libbte.a(l2cap.o)
 .text.l2ca_ping
                0x00000000        0x0 /Programs/devkitpro/libogc/lib/wii/libbte.a(l2cap.o)
 .text.l2ca_connect_req
                0x00000000        0x0 /Programs/devkitpro/libogc/lib/wii/libbte.a(l2cap.o)
 .text          0x00000000        0x0 /Programs/devkitpro/libogc/lib/wii/libbte.a(btmemb.o)
 .data          0x00000000        0x0 /Programs/devkitpro/libogc/lib/wii/libbte.a(btmemb.o)
 .bss           0x00000000        0x0 /Programs/devkitpro/libogc/lib/wii/libbte.a(btmemb.o)
 .text.btmemb_ref
                0x00000000        0x0 /Programs/devkitpro/libogc/lib/wii/libbte.a(btmemb.o)
 .text          0x00000000        0x0 /Programs/devkitpro/libogc/lib/wii/libbte.a(btmemr.o)
 .data          0x00000000        0x0 /Programs/devkitpro/libogc/lib/wii/libbte.a(btmemr.o)
 .bss           0x00000000        0x0 /Programs/devkitpro/libogc/lib/wii/libbte.a(btmemr.o)
 .text.btmemr_reallocm
                0x00000000        0x0 /Programs/devkitpro/libogc/lib/wii/libbte.a(btmemr.o)
 .text          0x00000000        0x0 /Programs/devkitpro/libogc/lib/wii/libbte.a(btpbuf.o)
 .data          0x00000000        0x0 /Programs/devkitpro/libogc/lib/wii/libbte.a(btpbuf.o)
 .bss           0x00000000        0x0 /Programs/devkitpro/libogc/lib/wii/libbte.a(btpbuf.o)
 .text.btpbuf_clen
                0x00000000        0x0 /Programs/devkitpro/libogc/lib/wii/libbte.a(btpbuf.o)
 .text.btpbuf_queue
                0x00000000        0x0 /Programs/devkitpro/libogc/lib/wii/libbte.a(btpbuf.o)
 .text.btpbuf_dequeue
                0x00000000        0x0 /Programs/devkitpro/libogc/lib/wii/libbte.a(btpbuf.o)
 .text          0x00000000        0x0 /Programs/devkitpro/libogc/lib/wii/libbte.a(physbusif.o)
 .data          0x00000000        0x0 /Programs/devkitpro/libogc/lib/wii/libbte.a(physbusif.o)
 .bss           0x00000000        0x0 /Programs/devkitpro/libogc/lib/wii/libbte.a(physbusif.o)
 .text.__ntd_set_ohci
                0x00000000        0x0 /Programs/devkitpro/libogc/lib/wii/libbte.a(physbusif.o)
 .text.__ntd_set_pid_vid
                0x00000000        0x0 /Programs/devkitpro/libogc/lib/wii/libbte.a(physbusif.o)
 .text          0x00000000        0x0 /Programs/devkitpro/libogc/lib/wii/libogc.a(console.o)
 .data          0x00000000        0x0 /Programs/devkitpro/libogc/lib/wii/libogc.a(console.o)
 .bss           0x00000000        0x0 /Programs/devkitpro/libogc/lib/wii/libogc.a(console.o)
 .text.CON_GetMetrics
                0x00000000        0x0 /Programs/devkitpro/libogc/lib/wii/libogc.a(console.o)
 .text.CON_GetPosition
                0x00000000        0x0 /Programs/devkitpro/libogc/lib/wii/libogc.a(console.o)
 .text.CON_EnableGecko
                0x00000000        0x0 /Programs/devkitpro/libogc/lib/wii/libogc.a(console.o)
 .text.__console_init_ex
                0x00000000        0x0 /Programs/devkitpro/libogc/lib/wii/libogc.a(console.o)
 .text.CON_InitEx
                0x00000000        0x0 /Programs/devkitpro/libogc/lib/wii/libogc.a(console.o)
 .text.__console_vipostcb
                0x00000000        0x0 /Programs/devkitpro/libogc/lib/wii/libogc.a(console.o)
 .sbss._console_buffer
                0x00000000        0x0 /Programs/devkitpro/libogc/lib/wii/libogc.a(console.o)
 .text          0x00000000        0x0 /Programs/devkitpro/libogc/lib/wii/libogc.a(lwp_queue.o)
 .data          0x00000000        0x0 /Programs/devkitpro/libogc/lib/wii/libogc.a(lwp_queue.o)
 .bss           0x00000000        0x0 /Programs/devkitpro/libogc/lib/wii/libogc.a(lwp_queue.o)
 .text.__lwp_queue_extract
                0x00000000        0x0 /Programs/devkitpro/libogc/lib/wii/libogc.a(lwp_queue.o)
 .text.__lwp_queue_insert
                0x00000000        0x0 /Programs/devkitpro/libogc/lib/wii/libogc.a(lwp_queue.o)
 .text          0x00000000        0x0 /Programs/devkitpro/libogc/lib/wii/libogc.a(lwp_threads.o)
 .data          0x00000000        0x0 /Programs/devkitpro/libogc/lib/wii/libogc.a(lwp_threads.o)
 .bss           0x00000000        0x0 /Programs/devkitpro/libogc/lib/wii/libogc.a(lwp_threads.o)
 .text.__lwp_thread_yield
                0x00000000        0x0 /Programs/devkitpro/libogc/lib/wii/libogc.a(lwp_threads.o)
 .text.__lwp_rotate_readyqueue
                0x00000000        0x0 /Programs/devkitpro/libogc/lib/wii/libogc.a(lwp_threads.o)
 .text.__lwp_thread_delayended
                0x00000000        0x0 /Programs/devkitpro/libogc/lib/wii/libogc.a(lwp_threads.o)
 .text.__lwp_evaluatemode
                0x00000000        0x0 /Programs/devkitpro/libogc/lib/wii/libogc.a(lwp_threads.o)
 .text.__lwp_thread_resume
                0x00000000        0x0 /Programs/devkitpro/libogc/lib/wii/libogc.a(lwp_threads.o)
 .text.__lwp_thread_suspend
                0x00000000        0x0 /Programs/devkitpro/libogc/lib/wii/libogc.a(lwp_threads.o)
 .text          0x00000000        0x0 /Programs/devkitpro/libogc/lib/wii/libogc.a(lwp.o)
 .data          0x00000000        0x0 /Programs/devkitpro/libogc/lib/wii/libogc.a(lwp.o)
 .bss           0x00000000        0x0 /Programs/devkitpro/libogc/lib/wii/libogc.a(lwp.o)
 .text.__lwp_thread_currentid
                0x00000000        0x0 /Programs/devkitpro/libogc/lib/wii/libogc.a(lwp.o)
 .text.LWP_GetSelf
                0x00000000        0x0 /Programs/devkitpro/libogc/lib/wii/libogc.a(lwp.o)
 .text.__lwp_thread_context
                0x00000000        0x0 /Programs/devkitpro/libogc/lib/wii/libogc.a(lwp.o)
 .text.__lwp_thread_exists
                0x00000000        0x0 /Programs/devkitpro/libogc/lib/wii/libogc.a(lwp.o)
 .text.__lwp_thread_isalive
                0x00000000        0x0 /Programs/devkitpro/libogc/lib/wii/libogc.a(lwp.o)
 .text.LWP_JoinThread
                0x00000000        0x0 /Programs/devkitpro/libogc/lib/wii/libogc.a(lwp.o)
 .text.LWP_ThreadIsSuspended
                0x00000000        0x0 /Programs/devkitpro/libogc/lib/wii/libogc.a(lwp.o)
 .text.LWP_Reschedule
                0x00000000        0x0 /Programs/devkitpro/libogc/lib/wii/libogc.a(lwp.o)
 .text.LWP_YieldThread
                0x00000000        0x0 /Programs/devkitpro/libogc/lib/wii/libogc.a(lwp.o)
 .text.LWP_SetThreadPriority
                0x00000000        0x0 /Programs/devkitpro/libogc/lib/wii/libogc.a(lwp.o)
 .text.LWP_ResumeThread
                0x00000000        0x0 /Programs/devkitpro/libogc/lib/wii/libogc.a(lwp.o)
 .text.LWP_SuspendThread
                0x00000000        0x0 /Programs/devkitpro/libogc/lib/wii/libogc.a(lwp.o)
 .text.LWP_CreateThread
                0x00000000        0x0 /Programs/devkitpro/libogc/lib/wii/libogc.a(lwp.o)
 .data          0x00000000        0x0 /Programs/devkitpro/libogc/lib/wii/libogc.a(lwp_handler.o)
 .bss           0x00000000        0x0 /Programs/devkitpro/libogc/lib/wii/libogc.a(lwp_handler.o)
 .text          0x00000000        0x0 /Programs/devkitpro/libogc/lib/wii/libogc.a(lwp_stack.o)
 .data          0x00000000        0x0 /Programs/devkitpro/libogc/lib/wii/libogc.a(lwp_stack.o)
 .bss           0x00000000        0x0 /Programs/devkitpro/libogc/lib/wii/libogc.a(lwp_stack.o)
 .text          0x00000000        0x0 /Programs/devkitpro/libogc/lib/wii/libogc.a(lwp_watchdog.o)
 .data          0x00000000        0x0 /Programs/devkitpro/libogc/lib/wii/libogc.a(lwp_watchdog.o)
 .bss           0x00000000        0x0 /Programs/devkitpro/libogc/lib/wii/libogc.a(lwp_watchdog.o)
 .text.__lwp_wd_adjust
                0x00000000        0x0 /Programs/devkitpro/libogc/lib/wii/libogc.a(lwp_watchdog.o)
 .text          0x00000000        0x0 /Programs/devkitpro/libogc/lib/wii/libogc.a(lwp_wkspace.o)
 .data          0x00000000        0x0 /Programs/devkitpro/libogc/lib/wii/libogc.a(lwp_wkspace.o)
 .bss           0x00000000        0x0 /Programs/devkitpro/libogc/lib/wii/libogc.a(lwp_wkspace.o)
 .text.__lwp_wkspace_heapsize
                0x00000000        0x0 /Programs/devkitpro/libogc/lib/wii/libogc.a(lwp_wkspace.o)
 .text.__lwp_wkspace_heapused
                0x00000000        0x0 /Programs/devkitpro/libogc/lib/wii/libogc.a(lwp_wkspace.o)
 .text.__lwp_wkspace_heapfree
                0x00000000        0x0 /Programs/devkitpro/libogc/lib/wii/libogc.a(lwp_wkspace.o)
 .bss.__wkspace_iblock
                0x00000000        0x0 /Programs/devkitpro/libogc/lib/wii/libogc.a(lwp_wkspace.o)
 .text          0x00000000        0x0 /Programs/devkitpro/libogc/lib/wii/libogc.a(lwp_objmgr.o)
 .data          0x00000000        0x0 /Programs/devkitpro/libogc/lib/wii/libogc.a(lwp_objmgr.o)
 .bss           0x00000000        0x0 /Programs/devkitpro/libogc/lib/wii/libogc.a(lwp_objmgr.o)
 .text.__lwp_objmgr_memsize
                0x00000000        0x0 /Programs/devkitpro/libogc/lib/wii/libogc.a(lwp_objmgr.o)
 .text          0x00000000        0x0 /Programs/devkitpro/libogc/lib/wii/libogc.a(lwp_heap.o)
 .data          0x00000000        0x0 /Programs/devkitpro/libogc/lib/wii/libogc.a(lwp_heap.o)
 .bss           0x00000000        0x0 /Programs/devkitpro/libogc/lib/wii/libogc.a(lwp_heap.o)
 .text.__lwp_heap_getinfo
                0x00000000        0x0 /Programs/devkitpro/libogc/lib/wii/libogc.a(lwp_heap.o)
 .text          0x00000000        0x0 /Programs/devkitpro/libogc/lib/wii/libogc.a(sys_state.o)
 .data          0x00000000        0x0 /Programs/devkitpro/libogc/lib/wii/libogc.a(sys_state.o)
 .bss           0x00000000        0x0 /Programs/devkitpro/libogc/lib/wii/libogc.a(sys_state.o)
 .text          0x00000000        0x0 /Programs/devkitpro/libogc/lib/wii/libogc.a(irq.o)
 .data          0x00000000        0x0 /Programs/devkitpro/libogc/lib/wii/libogc.a(irq.o)
 .bss           0x00000000        0x0 /Programs/devkitpro/libogc/lib/wii/libogc.a(irq.o)
 .text.IRQ_Free
                0x00000000        0x0 /Programs/devkitpro/libogc/lib/wii/libogc.a(irq.o)
 .text          0x00000000        0x0 /Programs/devkitpro/libogc/lib/wii/libogc.a(video.o)
 .data          0x00000000        0x0 /Programs/devkitpro/libogc/lib/wii/libogc.a(video.o)
 .bss           0x00000000        0x0 /Programs/devkitpro/libogc/lib/wii/libogc.a(video.o)
 .text.VIDEO_GetNextFramebuffer
                0x00000000        0x0 /Programs/devkitpro/libogc/lib/wii/libogc.a(video.o)
 .text.VIDEO_GetCurrentFramebuffer
                0x00000000        0x0 /Programs/devkitpro/libogc/lib/wii/libogc.a(video.o)
 .text.VIDEO_SetPreRetraceCallback
                0x00000000        0x0 /Programs/devkitpro/libogc/lib/wii/libogc.a(video.o)
 .text.VIDEO_SetPostRetraceCallback
                0x00000000        0x0 /Programs/devkitpro/libogc/lib/wii/libogc.a(video.o)
 .text.VIDEO_ClearFrameBuffer
                0x00000000        0x0 /Programs/devkitpro/libogc/lib/wii/libogc.a(video.o)
 .text.VIDEO_GetNextField
                0x00000000        0x0 /Programs/devkitpro/libogc/lib/wii/libogc.a(video.o)
 .text.VIDEO_SetNextRightFramebuffer
                0x00000000        0x0 /Programs/devkitpro/libogc/lib/wii/libogc.a(video.o)
 .data.TVPal264IntAa
                0x00000000        0x0 /Programs/devkitpro/libogc/lib/wii/libogc.a(video.o)
 .data.TVPal264DsAa
                0x00000000        0x0 /Programs/devkitpro/libogc/lib/wii/libogc.a(video.o)
 .data.TVNtsc480Int
                0x00000000        0x0 /Programs/devkitpro/libogc/lib/wii/libogc.a(video.o)
 .data.TVNtsc240IntAa
                0x00000000        0x0 /Programs/devkitpro/libogc/lib/wii/libogc.a(video.o)
 .data.TVNtsc480IntAa
                0x00000000        0x0 /Programs/devkitpro/libogc/lib/wii/libogc.a(video.o)
 .data.TVEurgb60Hz480ProgSoft
                0x00000000        0x0 /Programs/devkitpro/libogc/lib/wii/libogc.a(video.o)
 .data.TVEurgb60Hz480IntDf
                0x00000000        0x0 /Programs/devkitpro/libogc/lib/wii/libogc.a(video.o)
 .data.TVNtsc480ProgSoft
                0x00000000        0x0 /Programs/devkitpro/libogc/lib/wii/libogc.a(video.o)
 .data.TVEurgb60Hz240Int
                0x00000000        0x0 /Programs/devkitpro/libogc/lib/wii/libogc.a(video.o)
 .data.TVPal528Int
                0x00000000        0x0 /Programs/devkitpro/libogc/lib/wii/libogc.a(video.o)
 .data.TVNtsc480ProgAa
                0x00000000        0x0 /Programs/devkitpro/libogc/lib/wii/libogc.a(video.o)
 .data.TVPal264Ds
                0x00000000        0x0 /Programs/devkitpro/libogc/lib/wii/libogc.a(video.o)
 .data.TVNtsc240Int
                0x00000000        0x0 /Programs/devkitpro/libogc/lib/wii/libogc.a(video.o)
 .data.TVNtsc240Ds
                0x00000000        0x0 /Programs/devkitpro/libogc/lib/wii/libogc.a(video.o)
 .data.TVEurgb60Hz240IntAa
                0x00000000        0x0 /Programs/devkitpro/libogc/lib/wii/libogc.a(video.o)
 .data.TVPal264Int
                0x00000000        0x0 /Programs/devkitpro/libogc/lib/wii/libogc.a(video.o)
 .data.TVEurgb60Hz240Ds
                0x00000000        0x0 /Programs/devkitpro/libogc/lib/wii/libogc.a(video.o)
 .data.TVEurgb60Hz480Prog
                0x00000000        0x0 /Programs/devkitpro/libogc/lib/wii/libogc.a(video.o)
 .data.TVPal524IntAa
                0x00000000        0x0 /Programs/devkitpro/libogc/lib/wii/libogc.a(video.o)
 .data.TVNtsc240DsAa
                0x00000000        0x0 /Programs/devkitpro/libogc/lib/wii/libogc.a(video.o)
 .data.TVEurgb60Hz480ProgAa
                0x00000000        0x0 /Programs/devkitpro/libogc/lib/wii/libogc.a(video.o)
 .data.TVEurgb60Hz480IntAa
                0x00000000        0x0 /Programs/devkitpro/libogc/lib/wii/libogc.a(video.o)
 .data.TVEurgb60Hz240DsAa
                0x00000000        0x0 /Programs/devkitpro/libogc/lib/wii/libogc.a(video.o)
 .data.TVPal574IntDfScale
                0x00000000        0x0 /Programs/devkitpro/libogc/lib/wii/libogc.a(video.o)
 .text          0x00000000        0x0 /Programs/devkitpro/libogc/lib/wii/libogc.a(system.o)
 .data          0x00000000        0x0 /Programs/devkitpro/libogc/lib/wii/libogc.a(system.o)
 .bss           0x00000000        0x0 /Programs/devkitpro/libogc/lib/wii/libogc.a(system.o)
 .text.__SYS_LockSram
                0x00000000        0x0 /Programs/devkitpro/libogc/lib/wii/libogc.a(system.o)
 .text.__SYS_SyncSram
                0x00000000        0x0 /Programs/devkitpro/libogc/lib/wii/libogc.a(system.o)
 .text.__sdloader_boot
                0x00000000        0x0 /Programs/devkitpro/libogc/lib/wii/libogc.a(system.o)
 .text.SYS_GetArena1Size
                0x00000000        0x0 /Programs/devkitpro/libogc/lib/wii/libogc.a(system.o)
 .text.SYS_AllocArena1MemLo
                0x00000000        0x0 /Programs/devkitpro/libogc/lib/wii/libogc.a(system.o)
 .text.SYS_GetArena2Size
                0x00000000        0x0 /Programs/devkitpro/libogc/lib/wii/libogc.a(system.o)
 .text.SYS_AllocArena2MemLo
                0x00000000        0x0 /Programs/devkitpro/libogc/lib/wii/libogc.a(system.o)
 .text.SYS_GetFontTexture
                0x00000000        0x0 /Programs/devkitpro/libogc/lib/wii/libogc.a(system.o)
 .text.SYS_GetFontTexel
                0x00000000        0x0 /Programs/devkitpro/libogc/lib/wii/libogc.a(system.o)
 .text.SYS_SetResetCallback
                0x00000000        0x0 /Programs/devkitpro/libogc/lib/wii/libogc.a(system.o)
 .text.SYS_SetPowerCallback
                0x00000000        0x0 /Programs/devkitpro/libogc/lib/wii/libogc.a(system.o)
 .text.SYS_StartPMC
                0x00000000        0x0 /Programs/devkitpro/libogc/lib/wii/libogc.a(system.o)
 .text.SYS_StopPMC
                0x00000000        0x0 /Programs/devkitpro/libogc/lib/wii/libogc.a(system.o)
 .text.SYS_ResetPMC
                0x00000000        0x0 /Programs/devkitpro/libogc/lib/wii/libogc.a(system.o)
 .text.SYS_DumpPMC
                0x00000000        0x0 /Programs/devkitpro/libogc/lib/wii/libogc.a(system.o)
 .text.__SYS_GetSystemTime
                0x00000000        0x0 /Programs/devkitpro/libogc/lib/wii/libogc.a(system.o)
 .text.SYS_GetFontEncoding
                0x00000000        0x0 /Programs/devkitpro/libogc/lib/wii/libogc.a(system.o)
 .text.SYS_ProtectRange
                0x00000000        0x0 /Programs/devkitpro/libogc/lib/wii/libogc.a(system.o)
 .text.__SYS_SetTime
                0x00000000        0x0 /Programs/devkitpro/libogc/lib/wii/libogc.a(system.o)
 .text.__getrtc
                0x00000000        0x0 /Programs/devkitpro/libogc/lib/wii/libogc.a(system.o)
 .text.__SYS_GetRTC
                0x00000000        0x0 /Programs/devkitpro/libogc/lib/wii/libogc.a(system.o)
 .text.__SYS_ReadROM
                0x00000000        0x0 /Programs/devkitpro/libogc/lib/wii/libogc.a(system.o)
 .text.__SYS_LoadFont
                0x00000000        0x0 /Programs/devkitpro/libogc/lib/wii/libogc.a(system.o)
 .text.SYS_InitFont
                0x00000000        0x0 /Programs/devkitpro/libogc/lib/wii/libogc.a(system.o)
 .text.__SYS_UnlockSram
                0x00000000        0x0 /Programs/devkitpro/libogc/lib/wii/libogc.a(system.o)
 .text.__SYS_SetBootTime
                0x00000000        0x0 /Programs/devkitpro/libogc/lib/wii/libogc.a(system.o)
 .sbss.sys_fontimage
                0x00000000        0x0 /Programs/devkitpro/libogc/lib/wii/libogc.a(system.o)
 .sbss.sys_fontcharsinsheet
                0x00000000        0x0 /Programs/devkitpro/libogc/lib/wii/libogc.a(system.o)
 .sdata.sys_fontenc
                0x00000000        0x0 /Programs/devkitpro/libogc/lib/wii/libogc.a(system.o)
 .sbss.sys_fontdata
                0x00000000        0x0 /Programs/devkitpro/libogc/lib/wii/libogc.a(system.o)
 .sbss.sys_fontarea
                0x00000000        0x0 /Programs/devkitpro/libogc/lib/wii/libogc.a(system.o)
 .sbss.sys_fontwidthtab
                0x00000000        0x0 /Programs/devkitpro/libogc/lib/wii/libogc.a(system.o)
 .data          0x00000000        0x0 /Programs/devkitpro/libogc/lib/wii/libogc.a(system_asm.o)
 .bss           0x00000000        0x0 /Programs/devkitpro/libogc/lib/wii/libogc.a(system_asm.o)
 .text          0x00000000        0x0 /Programs/devkitpro/libogc/lib/wii/libogc.a(cond.o)
 .data          0x00000000        0x0 /Programs/devkitpro/libogc/lib/wii/libogc.a(cond.o)
 .bss           0x00000000        0x0 /Programs/devkitpro/libogc/lib/wii/libogc.a(cond.o)
 .text.LWP_CondDestroy
                0x00000000        0x0 /Programs/devkitpro/libogc/lib/wii/libogc.a(cond.o)
 .text.LWP_CondInit
                0x00000000        0x0 /Programs/devkitpro/libogc/lib/wii/libogc.a(cond.o)
 .text.__lwp_cond_signalsupp
                0x00000000        0x0 /Programs/devkitpro/libogc/lib/wii/libogc.a(cond.o)
 .text.LWP_CondBroadcast
                0x00000000        0x0 /Programs/devkitpro/libogc/lib/wii/libogc.a(cond.o)
 .text.LWP_CondSignal
                0x00000000        0x0 /Programs/devkitpro/libogc/lib/wii/libogc.a(cond.o)
 .text.__lwp_cond_waitsupp
                0x00000000        0x0 /Programs/devkitpro/libogc/lib/wii/libogc.a(cond.o)
 .text.LWP_CondTimedWait
                0x00000000        0x0 /Programs/devkitpro/libogc/lib/wii/libogc.a(cond.o)
 .text.LWP_CondWait
                0x00000000        0x0 /Programs/devkitpro/libogc/lib/wii/libogc.a(cond.o)
 .text          0x00000000        0x0 /Programs/devkitpro/libogc/lib/wii/libogc.a(decrementer.o)
 .data          0x00000000        0x0 /Programs/devkitpro/libogc/lib/wii/libogc.a(decrementer.o)
 .bss           0x00000000        0x0 /Programs/devkitpro/libogc/lib/wii/libogc.a(decrementer.o)
 .text          0x00000000        0x0 /Programs/devkitpro/libogc/lib/wii/libogc.a(message.o)
 .data          0x00000000        0x0 /Programs/devkitpro/libogc/lib/wii/libogc.a(message.o)
 .bss           0x00000000        0x0 /Programs/devkitpro/libogc/lib/wii/libogc.a(message.o)
 .text.MQ_Close
                0x00000000        0x0 /Programs/devkitpro/libogc/lib/wii/libogc.a(message.o)
 .text.MQ_Init  0x00000000        0x0 /Programs/devkitpro/libogc/lib/wii/libogc.a(message.o)
 .text.MQ_Jam   0x00000000        0x0 /Programs/devkitpro/libogc/lib/wii/libogc.a(message.o)
 .text.MQ_Receive
                0x00000000        0x0 /Programs/devkitpro/libogc/lib/wii/libogc.a(message.o)
 .text.MQ_Send  0x00000000        0x0 /Programs/devkitpro/libogc/lib/wii/libogc.a(message.o)
 .text          0x00000000        0x0 /Programs/devkitpro/libogc/lib/wii/libogc.a(si.o)
 .data          0x00000000        0x0 /Programs/devkitpro/libogc/lib/wii/libogc.a(si.o)
 .bss           0x00000000        0x0 /Programs/devkitpro/libogc/lib/wii/libogc.a(si.o)
 .text.SI_Busy  0x00000000        0x0 /Programs/devkitpro/libogc/lib/wii/libogc.a(si.o)
 .text.SI_GetCommand
                0x00000000        0x0 /Programs/devkitpro/libogc/lib/wii/libogc.a(si.o)
 .text.SI_EnablePollingInterrupt
                0x00000000        0x0 /Programs/devkitpro/libogc/lib/wii/libogc.a(si.o)
 .text.SI_UnregisterPollingHandler
                0x00000000        0x0 /Programs/devkitpro/libogc/lib/wii/libogc.a(si.o)
 .text.SI_RegisterPollingHandler
                0x00000000        0x0 /Programs/devkitpro/libogc/lib/wii/libogc.a(si.o)
 .text.SI_Sync  0x00000000        0x0 /Programs/devkitpro/libogc/lib/wii/libogc.a(si.o)
 .text          0x00000000        0x0 /Programs/devkitpro/libogc/lib/wii/libogc.a(ipc.o)
 .data          0x00000000        0x0 /Programs/devkitpro/libogc/lib/wii/libogc.a(ipc.o)
 .bss           0x00000000        0x0 /Programs/devkitpro/libogc/lib/wii/libogc.a(ipc.o)
 .text.iosDestroyHeap
                0x00000000        0x0 /Programs/devkitpro/libogc/lib/wii/libogc.a(ipc.o)
 .text.IPC_SetBufferHi
                0x00000000        0x0 /Programs/devkitpro/libogc/lib/wii/libogc.a(ipc.o)
 .text.__IPC_Reinitialize
                0x00000000        0x0 /Programs/devkitpro/libogc/lib/wii/libogc.a(ipc.o)
 .text.IOS_IoctlvRebootBackground
                0x00000000        0x0 /Programs/devkitpro/libogc/lib/wii/libogc.a(ipc.o)
 .text.IOS_OpenAsync
                0x00000000        0x0 /Programs/devkitpro/libogc/lib/wii/libogc.a(ipc.o)
 .text.IOS_ReadAsync
                0x00000000        0x0 /Programs/devkitpro/libogc/lib/wii/libogc.a(ipc.o)
 .text.IOS_IoctlvFormatAsync
                0x00000000        0x0 /Programs/devkitpro/libogc/lib/wii/libogc.a(ipc.o)
 .text.IOS_SeekAsync
                0x00000000        0x0 /Programs/devkitpro/libogc/lib/wii/libogc.a(ipc.o)
 .text.IOS_WriteAsync
                0x00000000        0x0 /Programs/devkitpro/libogc/lib/wii/libogc.a(ipc.o)
 .text          0x00000000        0x0 /Programs/devkitpro/libogc/lib/wii/libogc.a(ogc_crt0.o)
 .text          0x00000000        0x0 /Programs/devkitpro/libogc/lib/wii/libogc.a(console_font_8x16.o)
 .data          0x00000000        0x0 /Programs/devkitpro/libogc/lib/wii/libogc.a(console_font_8x16.o)
 .bss           0x00000000        0x0 /Programs/devkitpro/libogc/lib/wii/libogc.a(console_font_8x16.o)
 .text          0x00000000        0x0 /Programs/devkitpro/libogc/lib/wii/libogc.a(timesupp.o)
 .data          0x00000000        0x0 /Programs/devkitpro/libogc/lib/wii/libogc.a(timesupp.o)
 .bss           0x00000000        0x0 /Programs/devkitpro/libogc/lib/wii/libogc.a(timesupp.o)
 .text.settime  0x00000000        0x0 /Programs/devkitpro/libogc/lib/wii/libogc.a(timesupp.o)
 .text.diff_sec
                0x00000000        0x0 /Programs/devkitpro/libogc/lib/wii/libogc.a(timesupp.o)
 .text.diff_msec
                0x00000000        0x0 /Programs/devkitpro/libogc/lib/wii/libogc.a(timesupp.o)
 .text.diff_nsec
                0x00000000        0x0 /Programs/devkitpro/libogc/lib/wii/libogc.a(timesupp.o)
 .text.timespec_substract
                0x00000000        0x0 /Programs/devkitpro/libogc/lib/wii/libogc.a(timesupp.o)
 .text.timespec_to_ticks
                0x00000000        0x0 /Programs/devkitpro/libogc/lib/wii/libogc.a(timesupp.o)
 .text.clock    0x00000000        0x0 /Programs/devkitpro/libogc/lib/wii/libogc.a(timesupp.o)
 .text.__time_exi_unlock
                0x00000000        0x0 /Programs/devkitpro/libogc/lib/wii/libogc.a(timesupp.o)
 .text.__getrtc
                0x00000000        0x0 /Programs/devkitpro/libogc/lib/wii/libogc.a(timesupp.o)
 .text.time     0x00000000        0x0 /Programs/devkitpro/libogc/lib/wii/libogc.a(timesupp.o)
 .text.nanosleep
                0x00000000        0x0 /Programs/devkitpro/libogc/lib/wii/libogc.a(timesupp.o)
 .text.usleep   0x00000000        0x0 /Programs/devkitpro/libogc/lib/wii/libogc.a(timesupp.o)
 .text.sleep    0x00000000        0x0 /Programs/devkitpro/libogc/lib/wii/libogc.a(timesupp.o)
 .text.clock_gettime
                0x00000000        0x0 /Programs/devkitpro/libogc/lib/wii/libogc.a(timesupp.o)
 .text          0x00000000        0x0 /Programs/devkitpro/libogc/lib/wii/libogc.a(lock_supp.o)
 .data          0x00000000        0x0 /Programs/devkitpro/libogc/lib/wii/libogc.a(lock_supp.o)
 .bss           0x00000000        0x0 /Programs/devkitpro/libogc/lib/wii/libogc.a(lock_supp.o)
 .text          0x00000000        0x0 /Programs/devkitpro/libogc/lib/wii/libogc.a(newlibc.o)
 .data          0x00000000        0x0 /Programs/devkitpro/libogc/lib/wii/libogc.a(newlibc.o)
 .bss           0x00000000        0x0 /Programs/devkitpro/libogc/lib/wii/libogc.a(newlibc.o)
 .text.__libc_wrapup
                0x00000000        0x0 /Programs/devkitpro/libogc/lib/wii/libogc.a(newlibc.o)
 .text          0x00000000        0x0 /Programs/devkitpro/libogc/lib/wii/libogc.a(usbgecko.o)
 .data          0x00000000        0x0 /Programs/devkitpro/libogc/lib/wii/libogc.a(usbgecko.o)
 .bss           0x00000000        0x0 /Programs/devkitpro/libogc/lib/wii/libogc.a(usbgecko.o)
 .text.__usb_recvbyte
                0x00000000        0x0 /Programs/devkitpro/libogc/lib/wii/libogc.a(usbgecko.o)
 .text.usb_flush
                0x00000000        0x0 /Programs/devkitpro/libogc/lib/wii/libogc.a(usbgecko.o)
 .text.usb_recvbuffer
                0x00000000        0x0 /Programs/devkitpro/libogc/lib/wii/libogc.a(usbgecko.o)
 .text.usb_isgeckoalive
                0x00000000        0x0 /Programs/devkitpro/libogc/lib/wii/libogc.a(usbgecko.o)
 .text.__usb_checkrecv
                0x00000000        0x0 /Programs/devkitpro/libogc/lib/wii/libogc.a(usbgecko.o)
 .text.usb_recvbuffer_safe
                0x00000000        0x0 /Programs/devkitpro/libogc/lib/wii/libogc.a(usbgecko.o)
 .text          0x00000000        0x0 /Programs/devkitpro/libogc/lib/wii/libogc.a(sbrk.o)
 .data          0x00000000        0x0 /Programs/devkitpro/libogc/lib/wii/libogc.a(sbrk.o)
 .bss           0x00000000        0x0 /Programs/devkitpro/libogc/lib/wii/libogc.a(sbrk.o)
 .text          0x00000000        0x0 /Programs/devkitpro/libogc/lib/wii/libogc.a(malloc_lock.o)
 .data          0x00000000        0x0 /Programs/devkitpro/libogc/lib/wii/libogc.a(malloc_lock.o)
 .bss           0x00000000        0x0 /Programs/devkitpro/libogc/lib/wii/libogc.a(malloc_lock.o)
 .text          0x00000000        0x0 /Programs/devkitpro/libogc/lib/wii/libogc.a(stm.o)
 .data          0x00000000        0x0 /Programs/devkitpro/libogc/lib/wii/libogc.a(stm.o)
 .bss           0x00000000        0x0 /Programs/devkitpro/libogc/lib/wii/libogc.a(stm.o)
 .text          0x00000000        0x0 /Programs/devkitpro/libogc/lib/wii/libogc.a(ios.o)
 .data          0x00000000        0x0 /Programs/devkitpro/libogc/lib/wii/libogc.a(ios.o)
 .bss           0x00000000        0x0 /Programs/devkitpro/libogc/lib/wii/libogc.a(ios.o)
 .text.IOS_GetRevision
                0x00000000        0x0 /Programs/devkitpro/libogc/lib/wii/libogc.a(ios.o)
 .text.IOS_GetRevisionMinor
                0x00000000        0x0 /Programs/devkitpro/libogc/lib/wii/libogc.a(ios.o)
 .text.IOS_GetRevisionMajor
                0x00000000        0x0 /Programs/devkitpro/libogc/lib/wii/libogc.a(ios.o)
 .text.IOS_ReloadIOS
                0x00000000        0x0 /Programs/devkitpro/libogc/lib/wii/libogc.a(ios.o)
 .text          0x00000000        0x0 /Programs/devkitpro/libogc/lib/wii/libogc.a(es.o)
 .data          0x00000000        0x0 /Programs/devkitpro/libogc/lib/wii/libogc.a(es.o)
 .bss           0x00000000        0x0 /Programs/devkitpro/libogc/lib/wii/libogc.a(es.o)
 .text.ES_GetBoot2Version
                0x00000000        0x0 /Programs/devkitpro/libogc/lib/wii/libogc.a(es.o)
 .text.ES_GetDeviceID
                0x00000000        0x0 /Programs/devkitpro/libogc/lib/wii/libogc.a(es.o)
 .text.ES_GetDeviceCert
                0x00000000        0x0 /Programs/devkitpro/libogc/lib/wii/libogc.a(es.o)
 .text.ES_Sign  0x00000000        0x0 /Programs/devkitpro/libogc/lib/wii/libogc.a(es.o)
 .text.ES_Decrypt
                0x00000000        0x0 /Programs/devkitpro/libogc/lib/wii/libogc.a(es.o)
 .text.ES_Encrypt
                0x00000000        0x0 /Programs/devkitpro/libogc/lib/wii/libogc.a(es.o)
 .text.ES_DeleteTitleContent
                0x00000000        0x0 /Programs/devkitpro/libogc/lib/wii/libogc.a(es.o)
 .text.ES_DeleteTitle
                0x00000000        0x0 /Programs/devkitpro/libogc/lib/wii/libogc.a(es.o)
 .text.ES_ImportBoot
                0x00000000        0x0 /Programs/devkitpro/libogc/lib/wii/libogc.a(es.o)
 .text.ES_AddTitleCancel
                0x00000000        0x0 /Programs/devkitpro/libogc/lib/wii/libogc.a(es.o)
 .text.ES_AddTitleFinish
                0x00000000        0x0 /Programs/devkitpro/libogc/lib/wii/libogc.a(es.o)
 .text.ES_AddContentFinish
                0x00000000        0x0 /Programs/devkitpro/libogc/lib/wii/libogc.a(es.o)
 .text.ES_AddContentData
                0x00000000        0x0 /Programs/devkitpro/libogc/lib/wii/libogc.a(es.o)
 .text.ES_AddContentStart
                0x00000000        0x0 /Programs/devkitpro/libogc/lib/wii/libogc.a(es.o)
 .text.ES_AddTitleStart
                0x00000000        0x0 /Programs/devkitpro/libogc/lib/wii/libogc.a(es.o)
 .text.ES_AddTitleTMD
                0x00000000        0x0 /Programs/devkitpro/libogc/lib/wii/libogc.a(es.o)
 .text.ES_DeleteTicket
                0x00000000        0x0 /Programs/devkitpro/libogc/lib/wii/libogc.a(es.o)
 .text.ES_AddTicket
                0x00000000        0x0 /Programs/devkitpro/libogc/lib/wii/libogc.a(es.o)
 .text.ES_GetSharedContents
                0x00000000        0x0 /Programs/devkitpro/libogc/lib/wii/libogc.a(es.o)
 .text.ES_GetNumSharedContents
                0x00000000        0x0 /Programs/devkitpro/libogc/lib/wii/libogc.a(es.o)
 .text.ES_GetTMDView
                0x00000000        0x0 /Programs/devkitpro/libogc/lib/wii/libogc.a(es.o)
 .text.ES_GetTMDViewSize
                0x00000000        0x0 /Programs/devkitpro/libogc/lib/wii/libogc.a(es.o)
 .text.ES_GetTitleContents
                0x00000000        0x0 /Programs/devkitpro/libogc/lib/wii/libogc.a(es.o)
 .text.ES_GetTitleContentsCount
                0x00000000        0x0 /Programs/devkitpro/libogc/lib/wii/libogc.a(es.o)
 .text.ES_GetStoredTMDContents
                0x00000000        0x0 /Programs/devkitpro/libogc/lib/wii/libogc.a(es.o)
 .text.ES_GetNumStoredTMDContents
                0x00000000        0x0 /Programs/devkitpro/libogc/lib/wii/libogc.a(es.o)
 .text.ES_GetOwnedTitles
                0x00000000        0x0 /Programs/devkitpro/libogc/lib/wii/libogc.a(es.o)
 .text.ES_GetNumOwnedTitles
                0x00000000        0x0 /Programs/devkitpro/libogc/lib/wii/libogc.a(es.o)
 .text.ES_GetDataDir
                0x00000000        0x0 /Programs/devkitpro/libogc/lib/wii/libogc.a(es.o)
 .text.ES_SetUID
                0x00000000        0x0 /Programs/devkitpro/libogc/lib/wii/libogc.a(es.o)
 .text.ES_LaunchTitleBackground
                0x00000000        0x0 /Programs/devkitpro/libogc/lib/wii/libogc.a(es.o)
 .text          0x00000000        0x0 /Programs/devkitpro/libogc/lib/wii/libogc.a(isfs.o)
 .data          0x00000000        0x0 /Programs/devkitpro/libogc/lib/wii/libogc.a(isfs.o)
 .bss           0x00000000        0x0 /Programs/devkitpro/libogc/lib/wii/libogc.a(isfs.o)
 .text.ISFS_GetUsageAsync
                0x00000000        0x0 /Programs/devkitpro/libogc/lib/wii/libogc.a(isfs.o)
 .text.ISFS_ReadDirAsync
                0x00000000        0x0 /Programs/devkitpro/libogc/lib/wii/libogc.a(isfs.o)
 .text.__isfsFunctionCB
                0x00000000        0x0 /Programs/devkitpro/libogc/lib/wii/libogc.a(isfs.o)
 .text.ISFS_GetUsage
                0x00000000        0x0 /Programs/devkitpro/libogc/lib/wii/libogc.a(isfs.o)
 .text.ISFS_SetAttrAsync
                0x00000000        0x0 /Programs/devkitpro/libogc/lib/wii/libogc.a(isfs.o)
 .text.ISFS_RenameAsync
                0x00000000        0x0 /Programs/devkitpro/libogc/lib/wii/libogc.a(isfs.o)
 .text.ISFS_GetAttrAsync
                0x00000000        0x0 /Programs/devkitpro/libogc/lib/wii/libogc.a(isfs.o)
 .text.ISFS_GetFileStatsAsync
                0x00000000        0x0 /Programs/devkitpro/libogc/lib/wii/libogc.a(isfs.o)
 .text.ISFS_DeleteAsync
                0x00000000        0x0 /Programs/devkitpro/libogc/lib/wii/libogc.a(isfs.o)
 .text.ISFS_CreateFileAsync
                0x00000000        0x0 /Programs/devkitpro/libogc/lib/wii/libogc.a(isfs.o)
 .text.ISFS_GetStatsAsync
                0x00000000        0x0 /Programs/devkitpro/libogc/lib/wii/libogc.a(isfs.o)
 .text.ISFS_FormatAsync
                0x00000000        0x0 /Programs/devkitpro/libogc/lib/wii/libogc.a(isfs.o)
 .text.ISFS_CreateDirAsync
                0x00000000        0x0 /Programs/devkitpro/libogc/lib/wii/libogc.a(isfs.o)
 .text.ISFS_SetAttr
                0x00000000        0x0 /Programs/devkitpro/libogc/lib/wii/libogc.a(isfs.o)
 .text.ISFS_Rename
                0x00000000        0x0 /Programs/devkitpro/libogc/lib/wii/libogc.a(isfs.o)
 .text.ISFS_GetAttr
                0x00000000        0x0 /Programs/devkitpro/libogc/lib/wii/libogc.a(isfs.o)
 .text.ISFS_Delete
                0x00000000        0x0 /Programs/devkitpro/libogc/lib/wii/libogc.a(isfs.o)
 .text.ISFS_CreateFile
                0x00000000        0x0 /Programs/devkitpro/libogc/lib/wii/libogc.a(isfs.o)
 .text.ISFS_GetStats
                0x00000000        0x0 /Programs/devkitpro/libogc/lib/wii/libogc.a(isfs.o)
 .text.ISFS_Format
                0x00000000        0x0 /Programs/devkitpro/libogc/lib/wii/libogc.a(isfs.o)
 .text.ISFS_CreateDir
                0x00000000        0x0 /Programs/devkitpro/libogc/lib/wii/libogc.a(isfs.o)
 .text.ISFS_CloseAsync
                0x00000000        0x0 /Programs/devkitpro/libogc/lib/wii/libogc.a(isfs.o)
 .text.ISFS_SeekAsync
                0x00000000        0x0 /Programs/devkitpro/libogc/lib/wii/libogc.a(isfs.o)
 .text.ISFS_ReadAsync
                0x00000000        0x0 /Programs/devkitpro/libogc/lib/wii/libogc.a(isfs.o)
 .text.ISFS_WriteAsync
                0x00000000        0x0 /Programs/devkitpro/libogc/lib/wii/libogc.a(isfs.o)
 .text.ISFS_Write
                0x00000000        0x0 /Programs/devkitpro/libogc/lib/wii/libogc.a(isfs.o)
 .text.ISFS_OpenAsync
                0x00000000        0x0 /Programs/devkitpro/libogc/lib/wii/libogc.a(isfs.o)
 .text.ISFS_Deinitialize
                0x00000000        0x0 /Programs/devkitpro/libogc/lib/wii/libogc.a(isfs.o)
 .text          0x00000000        0x0 /Programs/devkitpro/libogc/lib/wii/libogc.a(usb.o)
 .data          0x00000000        0x0 /Programs/devkitpro/libogc/lib/wii/libogc.a(usb.o)
 .bss           0x00000000        0x0 /Programs/devkitpro/libogc/lib/wii/libogc.a(usb.o)
 .text.USB_ReadIntrMsg
                0x00000000        0x0 /Programs/devkitpro/libogc/lib/wii/libogc.a(usb.o)
 .text.USB_GetDeviceList
                0x00000000        0x0 /Programs/devkitpro/libogc/lib/wii/libogc.a(usb.o)
 .text.USB_DeviceInsertNotifyAsync
                0x00000000        0x0 /Programs/devkitpro/libogc/lib/wii/libogc.a(usb.o)
 .text.USB_CloseDevice
                0x00000000        0x0 /Programs/devkitpro/libogc/lib/wii/libogc.a(usb.o)
 .text.__usb_device_notificationCB
                0x00000000        0x0 /Programs/devkitpro/libogc/lib/wii/libogc.a(usb.o)
 .text.USB_ResumeDevice
                0x00000000        0x0 /Programs/devkitpro/libogc/lib/wii/libogc.a(usb.o)
 .text.USB_SuspendDevice
                0x00000000        0x0 /Programs/devkitpro/libogc/lib/wii/libogc.a(usb.o)
 .text.USB_DeviceRemovalNotifyAsync
                0x00000000        0x0 /Programs/devkitpro/libogc/lib/wii/libogc.a(usb.o)
 .text.USB_FreeDescriptors
                0x00000000        0x0 /Programs/devkitpro/libogc/lib/wii/libogc.a(usb.o)
 .text.USB_Deinitialize
                0x00000000        0x0 /Programs/devkitpro/libogc/lib/wii/libogc.a(usb.o)
 .text.USB_WriteBlkMsg
                0x00000000        0x0 /Programs/devkitpro/libogc/lib/wii/libogc.a(usb.o)
 .text.USB_ReadBlkMsg
                0x00000000        0x0 /Programs/devkitpro/libogc/lib/wii/libogc.a(usb.o)
 .text.USB_WriteIntrMsgAsync
                0x00000000        0x0 /Programs/devkitpro/libogc/lib/wii/libogc.a(usb.o)
 .text.USB_WriteIntrMsg
                0x00000000        0x0 /Programs/devkitpro/libogc/lib/wii/libogc.a(usb.o)
 .text.USB_ClearHalt
                0x00000000        0x0 /Programs/devkitpro/libogc/lib/wii/libogc.a(usb.o)
 .text.USB_SetAlternativeInterface
                0x00000000        0x0 /Programs/devkitpro/libogc/lib/wii/libogc.a(usb.o)
 .text.USB_GetConfiguration
                0x00000000        0x0 /Programs/devkitpro/libogc/lib/wii/libogc.a(usb.o)
 .text.USB_SetConfiguration
                0x00000000        0x0 /Programs/devkitpro/libogc/lib/wii/libogc.a(usb.o)
 .text.USB_WriteCtrlMsg
                0x00000000        0x0 /Programs/devkitpro/libogc/lib/wii/libogc.a(usb.o)
 .text.USB_ReadCtrlMsgAsync
                0x00000000        0x0 /Programs/devkitpro/libogc/lib/wii/libogc.a(usb.o)
 .text.USB_ReadCtrlMsg
                0x00000000        0x0 /Programs/devkitpro/libogc/lib/wii/libogc.a(usb.o)
 .text.USB_GetAsciiString
                0x00000000        0x0 /Programs/devkitpro/libogc/lib/wii/libogc.a(usb.o)
 .text.USB_GetDeviceDescription
                0x00000000        0x0 /Programs/devkitpro/libogc/lib/wii/libogc.a(usb.o)
 .text.USB_GetDescriptors
                0x00000000        0x0 /Programs/devkitpro/libogc/lib/wii/libogc.a(usb.o)
 .text          0x00000000        0x0 /Programs/devkitpro/libogc/lib/wii/libogc.a(argv.o)
 .data          0x00000000        0x0 /Programs/devkitpro/libogc/lib/wii/libogc.a(argv.o)
 .bss           0x00000000        0x0 /Programs/devkitpro/libogc/lib/wii/libogc.a(argv.o)
 .text          0x00000000        0x0 /Programs/devkitpro/libogc/lib/wii/libogc.a(conf.o)
 .data          0x00000000        0x0 /Programs/devkitpro/libogc/lib/wii/libogc.a(conf.o)
 .bss           0x00000000        0x0 /Programs/devkitpro/libogc/lib/wii/libogc.a(conf.o)
 .text.CONF_GetType
                0x00000000        0x0 /Programs/devkitpro/libogc/lib/wii/libogc.a(conf.o)
 .text.CONF_GetWiiConnect24
                0x00000000        0x0 /Programs/devkitpro/libogc/lib/wii/libogc.a(conf.o)
 .text.CONF_GetParentalAnswer
                0x00000000        0x0 /Programs/devkitpro/libogc/lib/wii/libogc.a(conf.o)
 .text.CONF_GetParentalPassword
                0x00000000        0x0 /Programs/devkitpro/libogc/lib/wii/libogc.a(conf.o)
 .text.CONF_GetEULA
                0x00000000        0x0 /Programs/devkitpro/libogc/lib/wii/libogc.a(conf.o)
 .text.CONF_GetAspectRatio
                0x00000000        0x0 /Programs/devkitpro/libogc/lib/wii/libogc.a(conf.o)
 .text.CONF_GetNickName
                0x00000000        0x0 /Programs/devkitpro/libogc/lib/wii/libogc.a(conf.o)
 .text.CONF_GetScreenSaverMode
                0x00000000        0x0 /Programs/devkitpro/libogc/lib/wii/libogc.a(conf.o)
 .text.CONF_GetCounterBias
                0x00000000        0x0 /Programs/devkitpro/libogc/lib/wii/libogc.a(conf.o)
 .text.CONF_GetLanguage
                0x00000000        0x0 /Programs/devkitpro/libogc/lib/wii/libogc.a(conf.o)
 .text.CONF_GetSoundMode
                0x00000000        0x0 /Programs/devkitpro/libogc/lib/wii/libogc.a(conf.o)
 .text.CONF_GetPadMotorMode
                0x00000000        0x0 /Programs/devkitpro/libogc/lib/wii/libogc.a(conf.o)
 .text.CONF_GetPadSpeakerVolume
                0x00000000        0x0 /Programs/devkitpro/libogc/lib/wii/libogc.a(conf.o)
 .text.CONF_GetArea
                0x00000000        0x0 /Programs/devkitpro/libogc/lib/wii/libogc.a(conf.o)
 .text.CONF_GetRegion
                0x00000000        0x0 /Programs/devkitpro/libogc/lib/wii/libogc.a(conf.o)
 .text          0x00000000        0x0 /Programs/devkitpro/libogc/lib/wii/libogc.a(wiilaunch.o)
 .data          0x00000000        0x0 /Programs/devkitpro/libogc/lib/wii/libogc.a(wiilaunch.o)
 .bss           0x00000000        0x0 /Programs/devkitpro/libogc/lib/wii/libogc.a(wiilaunch.o)
 .text.WII_ReturnToSettings
                0x00000000        0x0 /Programs/devkitpro/libogc/lib/wii/libogc.a(wiilaunch.o)
 .text.__WII_SetArgs
                0x00000000        0x0 /Programs/devkitpro/libogc/lib/wii/libogc.a(wiilaunch.o)
 .text.WII_LaunchTitleWithArgs
                0x00000000        0x0 /Programs/devkitpro/libogc/lib/wii/libogc.a(wiilaunch.o)
 .text.WII_OpenURL
                0x00000000        0x0 /Programs/devkitpro/libogc/lib/wii/libogc.a(wiilaunch.o)
 .text.WII_ReturnToSettingsPage
                0x00000000        0x0 /Programs/devkitpro/libogc/lib/wii/libogc.a(wiilaunch.o)
 .rodata.str1.4
                0x00000000        0x0 /Programs/devkitpro/libogc/lib/wii/libogc.a(wiilaunch.o)
 .text          0x00000000        0x0 /Programs/devkitpro/libogc/lib/wii/libogc.a(lwp_priority.o)
 .data          0x00000000        0x0 /Programs/devkitpro/libogc/lib/wii/libogc.a(lwp_priority.o)
 .bss           0x00000000        0x0 /Programs/devkitpro/libogc/lib/wii/libogc.a(lwp_priority.o)
 .text          0x00000000        0x0 /Programs/devkitpro/libogc/lib/wii/libogc.a(lwp_threadq.o)
 .data          0x00000000        0x0 /Programs/devkitpro/libogc/lib/wii/libogc.a(lwp_threadq.o)
 .bss           0x00000000        0x0 /Programs/devkitpro/libogc/lib/wii/libogc.a(lwp_threadq.o)
 .text.__lwp_threadqueue_firstfifo
                0x00000000        0x0 /Programs/devkitpro/libogc/lib/wii/libogc.a(lwp_threadq.o)
 .text.__lwp_threadqueue_firstpriority
                0x00000000        0x0 /Programs/devkitpro/libogc/lib/wii/libogc.a(lwp_threadq.o)
 .text.__lwp_threadqueue_first
                0x00000000        0x0 /Programs/devkitpro/libogc/lib/wii/libogc.a(lwp_threadq.o)
 .text          0x00000000        0x0 /Programs/devkitpro/libogc/lib/wii/libogc.a(lwp_messages.o)
 .data          0x00000000        0x0 /Programs/devkitpro/libogc/lib/wii/libogc.a(lwp_messages.o)
 .bss           0x00000000        0x0 /Programs/devkitpro/libogc/lib/wii/libogc.a(lwp_messages.o)
 .text.__lwpmq_flush_support
                0x00000000        0x0 /Programs/devkitpro/libogc/lib/wii/libogc.a(lwp_messages.o)
 .text.__lwpmq_flush
                0x00000000        0x0 /Programs/devkitpro/libogc/lib/wii/libogc.a(lwp_messages.o)
 .text.__lwpmq_flush_waitthreads
                0x00000000        0x0 /Programs/devkitpro/libogc/lib/wii/libogc.a(lwp_messages.o)
 .text.__lwpmq_close
                0x00000000        0x0 /Programs/devkitpro/libogc/lib/wii/libogc.a(lwp_messages.o)
 .text.__lwpmq_initialize
                0x00000000        0x0 /Programs/devkitpro/libogc/lib/wii/libogc.a(lwp_messages.o)
 .text.__lwpmq_msg_insert
                0x00000000        0x0 /Programs/devkitpro/libogc/lib/wii/libogc.a(lwp_messages.o)
 .text.__lwpmq_broadcast
                0x00000000        0x0 /Programs/devkitpro/libogc/lib/wii/libogc.a(lwp_messages.o)
 .text.__lwpmq_submit
                0x00000000        0x0 /Programs/devkitpro/libogc/lib/wii/libogc.a(lwp_messages.o)
 .text.__lwpmq_seize
                0x00000000        0x0 /Programs/devkitpro/libogc/lib/wii/libogc.a(lwp_messages.o)
 .text          0x00000000        0x0 /Programs/devkitpro/libogc/lib/wii/libogc.a(lwp_mutex.o)
 .data          0x00000000        0x0 /Programs/devkitpro/libogc/lib/wii/libogc.a(lwp_mutex.o)
 .bss           0x00000000        0x0 /Programs/devkitpro/libogc/lib/wii/libogc.a(lwp_mutex.o)
 .text          0x00000000        0x0 /Programs/devkitpro/libogc/lib/wii/libogc.a(exception.o)
 .data          0x00000000        0x0 /Programs/devkitpro/libogc/lib/wii/libogc.a(exception.o)
 .bss           0x00000000        0x0 /Programs/devkitpro/libogc/lib/wii/libogc.a(exception.o)
 .text.__exception_close
                0x00000000        0x0 /Programs/devkitpro/libogc/lib/wii/libogc.a(exception.o)
 .text.__exception_closeall
                0x00000000        0x0 /Programs/devkitpro/libogc/lib/wii/libogc.a(exception.o)
 .data          0x00000000        0x0 /Programs/devkitpro/libogc/lib/wii/libogc.a(irq_handler.o)
 .bss           0x00000000        0x0 /Programs/devkitpro/libogc/lib/wii/libogc.a(irq_handler.o)
 .text          0x00000000        0x0 /Programs/devkitpro/libogc/lib/wii/libogc.a(semaphore.o)
 .data          0x00000000        0x0 /Programs/devkitpro/libogc/lib/wii/libogc.a(semaphore.o)
 .bss           0x00000000        0x0 /Programs/devkitpro/libogc/lib/wii/libogc.a(semaphore.o)
 .text.LWP_SemInit
                0x00000000        0x0 /Programs/devkitpro/libogc/lib/wii/libogc.a(semaphore.o)
 .text.LWP_SemDestroy
                0x00000000        0x0 /Programs/devkitpro/libogc/lib/wii/libogc.a(semaphore.o)
 .text.LWP_SemPost
                0x00000000        0x0 /Programs/devkitpro/libogc/lib/wii/libogc.a(semaphore.o)
 .text.LWP_SemWait
                0x00000000        0x0 /Programs/devkitpro/libogc/lib/wii/libogc.a(semaphore.o)
 .text          0x00000000        0x0 /Programs/devkitpro/libogc/lib/wii/libogc.a(video_asm.o)
 .data          0x00000000        0x0 /Programs/devkitpro/libogc/lib/wii/libogc.a(video_asm.o)
 .bss           0x00000000        0x0 /Programs/devkitpro/libogc/lib/wii/libogc.a(video_asm.o)
 .text          0x00000000        0x0 /Programs/devkitpro/libogc/lib/wii/libogc.a(pad.o)
 .data          0x00000000        0x0 /Programs/devkitpro/libogc/lib/wii/libogc.a(pad.o)
 .bss           0x00000000        0x0 /Programs/devkitpro/libogc/lib/wii/libogc.a(pad.o)
 .text.SPEC0_MakeStatus
                0x00000000        0x0 /Programs/devkitpro/libogc/lib/wii/libogc.a(pad.o)
 .text.SPEC1_MakeStatus
                0x00000000        0x0 /Programs/devkitpro/libogc/lib/wii/libogc.a(pad.o)
 .text.__pad_clampS8
                0x00000000        0x0 /Programs/devkitpro/libogc/lib/wii/libogc.a(pad.o)
 .text.__pad_clampU8
                0x00000000        0x0 /Programs/devkitpro/libogc/lib/wii/libogc.a(pad.o)
 .text.SPEC2_MakeStatus
                0x00000000        0x0 /Programs/devkitpro/libogc/lib/wii/libogc.a(pad.o)
 .text.__pad_clampstick
                0x00000000        0x0 /Programs/devkitpro/libogc/lib/wii/libogc.a(pad.o)
 .text.__pad_clamptrigger
                0x00000000        0x0 /Programs/devkitpro/libogc/lib/wii/libogc.a(pad.o)
 .text.__pad_samplinghandler
                0x00000000        0x0 /Programs/devkitpro/libogc/lib/wii/libogc.a(pad.o)
 .text.PAD_Recalibrate
                0x00000000        0x0 /Programs/devkitpro/libogc/lib/wii/libogc.a(pad.o)
 .text.PAD_SetSpec
                0x00000000        0x0 /Programs/devkitpro/libogc/lib/wii/libogc.a(pad.o)
 .text.PAD_Clamp
                0x00000000        0x0 /Programs/devkitpro/libogc/lib/wii/libogc.a(pad.o)
 .text.PAD_ButtonsUp
                0x00000000        0x0 /Programs/devkitpro/libogc/lib/wii/libogc.a(pad.o)
 .text.PAD_ButtonsHeld
                0x00000000        0x0 /Programs/devkitpro/libogc/lib/wii/libogc.a(pad.o)
 .text.PAD_SubStickX
                0x00000000        0x0 /Programs/devkitpro/libogc/lib/wii/libogc.a(pad.o)
 .text.PAD_SubStickY
                0x00000000        0x0 /Programs/devkitpro/libogc/lib/wii/libogc.a(pad.o)
 .text.PAD_StickX
                0x00000000        0x0 /Programs/devkitpro/libogc/lib/wii/libogc.a(pad.o)
 .text.PAD_StickY
                0x00000000        0x0 /Programs/devkitpro/libogc/lib/wii/libogc.a(pad.o)
 .text.PAD_TriggerL
                0x00000000        0x0 /Programs/devkitpro/libogc/lib/wii/libogc.a(pad.o)
 .text.PAD_TriggerR
                0x00000000        0x0 /Programs/devkitpro/libogc/lib/wii/libogc.a(pad.o)
 .text.PAD_SetSamplingCallback
                0x00000000        0x0 /Programs/devkitpro/libogc/lib/wii/libogc.a(pad.o)
 .text.PAD_ControlMotor
                0x00000000        0x0 /Programs/devkitpro/libogc/lib/wii/libogc.a(pad.o)
 .text.PAD_Sync
                0x00000000        0x0 /Programs/devkitpro/libogc/lib/wii/libogc.a(pad.o)
 .text.__pad_onreset
                0x00000000        0x0 /Programs/devkitpro/libogc/lib/wii/libogc.a(pad.o)
 .text.PAD_Init
                0x00000000        0x0 /Programs/devkitpro/libogc/lib/wii/libogc.a(pad.o)
 .data.pad_resetinfo
                0x00000000        0x0 /Programs/devkitpro/libogc/lib/wii/libogc.a(pad.o)
 .sbss.__pad_samplingcallback
                0x00000000        0x0 /Programs/devkitpro/libogc/lib/wii/libogc.a(pad.o)
 .sbss.__pad_initialized
                0x00000000        0x0 /Programs/devkitpro/libogc/lib/wii/libogc.a(pad.o)
 .sbss.__pad_recalibrated$207
                0x00000000        0x0 /Programs/devkitpro/libogc/lib/wii/libogc.a(pad.o)
 .text          0x00000000        0x0 /Programs/devkitpro/libogc/lib/wii/libogc.a(exi.o)
 .data          0x00000000        0x0 /Programs/devkitpro/libogc/lib/wii/libogc.a(exi.o)
 .bss           0x00000000        0x0 /Programs/devkitpro/libogc/lib/wii/libogc.a(exi.o)
 .text.EXI_GetState
                0x00000000        0x0 /Programs/devkitpro/libogc/lib/wii/libogc.a(exi.o)
 .text.InitializeUART
                0x00000000        0x0 /Programs/devkitpro/libogc/lib/wii/libogc.a(exi.o)
 .text.WriteUARTN
                0x00000000        0x0 /Programs/devkitpro/libogc/lib/wii/libogc.a(exi.o)
 .text.EXI_Probe
                0x00000000        0x0 /Programs/devkitpro/libogc/lib/wii/libogc.a(exi.o)
 .text.EXI_ProbeEx
                0x00000000        0x0 /Programs/devkitpro/libogc/lib/wii/libogc.a(exi.o)
 .text.EXI_Attach
                0x00000000        0x0 /Programs/devkitpro/libogc/lib/wii/libogc.a(exi.o)
 .text.__SYS_EnableBarnacle
                0x00000000        0x0 /Programs/devkitpro/libogc/lib/wii/libogc.a(exi.o)
 .text.EXI_SelectSD
                0x00000000        0x0 /Programs/devkitpro/libogc/lib/wii/libogc.a(exi.o)
 .text.EXI_RegisterEXICallback
                0x00000000        0x0 /Programs/devkitpro/libogc/lib/wii/libogc.a(exi.o)
 .sbss.exi_uart_dev
                0x00000000        0x0 /Programs/devkitpro/libogc/lib/wii/libogc.a(exi.o)
 .sbss.exi_uart_barnacle_enabled
                0x00000000        0x0 /Programs/devkitpro/libogc/lib/wii/libogc.a(exi.o)
 .sbss.exi_uart_chan
                0x00000000        0x0 /Programs/devkitpro/libogc/lib/wii/libogc.a(exi.o)
 .sbss.exi_uart_enabled
                0x00000000        0x0 /Programs/devkitpro/libogc/lib/wii/libogc.a(exi.o)
 .text          0x00000000        0x0 /Programs/devkitpro/libogc/lib/wii/libogc.a(mutex.o)
 .data          0x00000000        0x0 /Programs/devkitpro/libogc/lib/wii/libogc.a(mutex.o)
 .bss           0x00000000        0x0 /Programs/devkitpro/libogc/lib/wii/libogc.a(mutex.o)
 .text.LWP_MutexTryLock
                0x00000000        0x0 /Programs/devkitpro/libogc/lib/wii/libogc.a(mutex.o)
 .data          0x00000000        0x0 /Programs/devkitpro/libogc/lib/wii/libogc.a(cache_asm.o)
 .bss           0x00000000        0x0 /Programs/devkitpro/libogc/lib/wii/libogc.a(cache_asm.o)
 .data          0x00000000        0x0 /Programs/devkitpro/libogc/lib/wii/libogc.a(decrementer_handler.o)
 .bss           0x00000000        0x0 /Programs/devkitpro/libogc/lib/wii/libogc.a(decrementer_handler.o)
 .text          0x00000000        0x0 /Programs/devkitpro/libogc/lib/wii/libogc.a(kprintf.o)
 .data          0x00000000        0x0 /Programs/devkitpro/libogc/lib/wii/libogc.a(kprintf.o)
 .bss           0x00000000        0x0 /Programs/devkitpro/libogc/lib/wii/libogc.a(kprintf.o)
 .text          0x00000000        0x0 /Programs/devkitpro/libogc/lib/wii/libogc.a(lwp_sema.o)
 .data          0x00000000        0x0 /Programs/devkitpro/libogc/lib/wii/libogc.a(lwp_sema.o)
 .bss           0x00000000        0x0 /Programs/devkitpro/libogc/lib/wii/libogc.a(lwp_sema.o)
 .text.__lwp_sema_flush
                0x00000000        0x0 /Programs/devkitpro/libogc/lib/wii/libogc.a(lwp_sema.o)
 .text.__lwp_sema_seize
                0x00000000        0x0 /Programs/devkitpro/libogc/lib/wii/libogc.a(lwp_sema.o)
 .text.__lwp_sema_surrender
                0x00000000        0x0 /Programs/devkitpro/libogc/lib/wii/libogc.a(lwp_sema.o)
 .text.__lwp_sema_initialize
                0x00000000        0x0 /Programs/devkitpro/libogc/lib/wii/libogc.a(lwp_sema.o)
 .data          0x00000000        0x0 /Programs/devkitpro/libogc/lib/wii/libogc.a(exception_handler.o)
 .bss           0x00000000        0x0 /Programs/devkitpro/libogc/lib/wii/libogc.a(exception_handler.o)
 .data          0x00000000        0x0 /Programs/devkitpro/devkitPPC/bin/../lib/gcc/powerpc-gekko/4.2.4/../../../../powerpc-gekko/lib/libm.a(lib_a-s_atan2.o)
 .bss           0x00000000        0x0 /Programs/devkitpro/devkitPPC/bin/../lib/gcc/powerpc-gekko/4.2.4/../../../../powerpc-gekko/lib/libm.a(lib_a-s_atan2.o)
 .data          0x00000000        0x0 /Programs/devkitpro/devkitPPC/bin/../lib/gcc/powerpc-gekko/4.2.4/../../../../powerpc-gekko/lib/libm.a(lib_a-s_atangent.o)
 .bss           0x00000000        0x0 /Programs/devkitpro/devkitPPC/bin/../lib/gcc/powerpc-gekko/4.2.4/../../../../powerpc-gekko/lib/libm.a(lib_a-s_atangent.o)
 .data          0x00000000        0x0 /Programs/devkitpro/devkitPPC/bin/../lib/gcc/powerpc-gekko/4.2.4/../../../../powerpc-gekko/lib/libm.a(lib_a-s_cos.o)
 .bss           0x00000000        0x0 /Programs/devkitpro/devkitPPC/bin/../lib/gcc/powerpc-gekko/4.2.4/../../../../powerpc-gekko/lib/libm.a(lib_a-s_cos.o)
 .data          0x00000000        0x0 /Programs/devkitpro/devkitPPC/bin/../lib/gcc/powerpc-gekko/4.2.4/../../../../powerpc-gekko/lib/libm.a(lib_a-s_fabs.o)
 .bss           0x00000000        0x0 /Programs/devkitpro/devkitPPC/bin/../lib/gcc/powerpc-gekko/4.2.4/../../../../powerpc-gekko/lib/libm.a(lib_a-s_fabs.o)
 .data          0x00000000        0x0 /Programs/devkitpro/devkitPPC/bin/../lib/gcc/powerpc-gekko/4.2.4/../../../../powerpc-gekko/lib/libm.a(lib_a-s_frexp.o)
 .bss           0x00000000        0x0 /Programs/devkitpro/devkitPPC/bin/../lib/gcc/powerpc-gekko/4.2.4/../../../../powerpc-gekko/lib/libm.a(lib_a-s_frexp.o)
 .text          0x00000000        0x0 /Programs/devkitpro/devkitPPC/bin/../lib/gcc/powerpc-gekko/4.2.4/../../../../powerpc-gekko/lib/libm.a(lib_a-s_mathcnst.o)
 .data          0x00000000        0x0 /Programs/devkitpro/devkitPPC/bin/../lib/gcc/powerpc-gekko/4.2.4/../../../../powerpc-gekko/lib/libm.a(lib_a-s_mathcnst.o)
 .bss           0x00000000        0x0 /Programs/devkitpro/devkitPPC/bin/../lib/gcc/powerpc-gekko/4.2.4/../../../../powerpc-gekko/lib/libm.a(lib_a-s_mathcnst.o)
 .data          0x00000000        0x0 /Programs/devkitpro/devkitPPC/bin/../lib/gcc/powerpc-gekko/4.2.4/../../../../powerpc-gekko/lib/libm.a(lib_a-s_numtest.o)
 .bss           0x00000000        0x0 /Programs/devkitpro/devkitPPC/bin/../lib/gcc/powerpc-gekko/4.2.4/../../../../powerpc-gekko/lib/libm.a(lib_a-s_numtest.o)
 .data          0x00000000        0x0 /Programs/devkitpro/devkitPPC/bin/../lib/gcc/powerpc-gekko/4.2.4/../../../../powerpc-gekko/lib/libm.a(lib_a-s_sin.o)
 .bss           0x00000000        0x0 /Programs/devkitpro/devkitPPC/bin/../lib/gcc/powerpc-gekko/4.2.4/../../../../powerpc-gekko/lib/libm.a(lib_a-s_sin.o)
 .data          0x00000000        0x0 /Programs/devkitpro/devkitPPC/bin/../lib/gcc/powerpc-gekko/4.2.4/../../../../powerpc-gekko/lib/libm.a(lib_a-s_sine.o)
 .bss           0x00000000        0x0 /Programs/devkitpro/devkitPPC/bin/../lib/gcc/powerpc-gekko/4.2.4/../../../../powerpc-gekko/lib/libm.a(lib_a-s_sine.o)
 .data          0x00000000        0x0 /Programs/devkitpro/devkitPPC/bin/../lib/gcc/powerpc-gekko/4.2.4/../../../../powerpc-gekko/lib/libm.a(lib_a-s_sqrt.o)
 .bss           0x00000000        0x0 /Programs/devkitpro/devkitPPC/bin/../lib/gcc/powerpc-gekko/4.2.4/../../../../powerpc-gekko/lib/libm.a(lib_a-s_sqrt.o)
 .data          0x00000000        0x0 /Programs/devkitpro/devkitPPC/bin/../lib/gcc/powerpc-gekko/4.2.4/../../../../powerpc-gekko/lib/libm.a(lib_a-sf_atan.o)
 .bss           0x00000000        0x0 /Programs/devkitpro/devkitPPC/bin/../lib/gcc/powerpc-gekko/4.2.4/../../../../powerpc-gekko/lib/libm.a(lib_a-sf_atan.o)
 .data          0x00000000        0x0 /Programs/devkitpro/devkitPPC/bin/../lib/gcc/powerpc-gekko/4.2.4/../../../../powerpc-gekko/lib/libm.a(lib_a-sf_atan2.o)
 .bss           0x00000000        0x0 /Programs/devkitpro/devkitPPC/bin/../lib/gcc/powerpc-gekko/4.2.4/../../../../powerpc-gekko/lib/libm.a(lib_a-sf_atan2.o)
 .data          0x00000000        0x0 /Programs/devkitpro/devkitPPC/bin/../lib/gcc/powerpc-gekko/4.2.4/../../../../powerpc-gekko/lib/libm.a(lib_a-sf_atangent.o)
 .bss           0x00000000        0x0 /Programs/devkitpro/devkitPPC/bin/../lib/gcc/powerpc-gekko/4.2.4/../../../../powerpc-gekko/lib/libm.a(lib_a-sf_atangent.o)
 .data          0x00000000        0x0 /Programs/devkitpro/devkitPPC/bin/../lib/gcc/powerpc-gekko/4.2.4/../../../../powerpc-gekko/lib/libm.a(lib_a-sf_cos.o)
 .bss           0x00000000        0x0 /Programs/devkitpro/devkitPPC/bin/../lib/gcc/powerpc-gekko/4.2.4/../../../../powerpc-gekko/lib/libm.a(lib_a-sf_cos.o)
 .data          0x00000000        0x0 /Programs/devkitpro/devkitPPC/bin/../lib/gcc/powerpc-gekko/4.2.4/../../../../powerpc-gekko/lib/libm.a(lib_a-sf_fabs.o)
 .bss           0x00000000        0x0 /Programs/devkitpro/devkitPPC/bin/../lib/gcc/powerpc-gekko/4.2.4/../../../../powerpc-gekko/lib/libm.a(lib_a-sf_fabs.o)
 .data          0x00000000        0x0 /Programs/devkitpro/devkitPPC/bin/../lib/gcc/powerpc-gekko/4.2.4/../../../../powerpc-gekko/lib/libm.a(lib_a-sf_fpclassify.o)
 .bss           0x00000000        0x0 /Programs/devkitpro/devkitPPC/bin/../lib/gcc/powerpc-gekko/4.2.4/../../../../powerpc-gekko/lib/libm.a(lib_a-sf_fpclassify.o)
 .data          0x00000000        0x0 /Programs/devkitpro/devkitPPC/bin/../lib/gcc/powerpc-gekko/4.2.4/../../../../powerpc-gekko/lib/libm.a(lib_a-sf_frexp.o)
 .bss           0x00000000        0x0 /Programs/devkitpro/devkitPPC/bin/../lib/gcc/powerpc-gekko/4.2.4/../../../../powerpc-gekko/lib/libm.a(lib_a-sf_frexp.o)
 .data          0x00000000        0x0 /Programs/devkitpro/devkitPPC/bin/../lib/gcc/powerpc-gekko/4.2.4/../../../../powerpc-gekko/lib/libm.a(lib_a-sf_isinff.o)
 .bss           0x00000000        0x0 /Programs/devkitpro/devkitPPC/bin/../lib/gcc/powerpc-gekko/4.2.4/../../../../powerpc-gekko/lib/libm.a(lib_a-sf_isinff.o)
 .data          0x00000000        0x0 /Programs/devkitpro/devkitPPC/bin/../lib/gcc/powerpc-gekko/4.2.4/../../../../powerpc-gekko/lib/libm.a(lib_a-sf_isnanf.o)
 .bss           0x00000000        0x0 /Programs/devkitpro/devkitPPC/bin/../lib/gcc/powerpc-gekko/4.2.4/../../../../powerpc-gekko/lib/libm.a(lib_a-sf_isnanf.o)
 .data          0x00000000        0x0 /Programs/devkitpro/devkitPPC/bin/../lib/gcc/powerpc-gekko/4.2.4/../../../../powerpc-gekko/lib/libm.a(lib_a-sf_numtest.o)
 .bss           0x00000000        0x0 /Programs/devkitpro/devkitPPC/bin/../lib/gcc/powerpc-gekko/4.2.4/../../../../powerpc-gekko/lib/libm.a(lib_a-sf_numtest.o)
 .data          0x00000000        0x0 /Programs/devkitpro/devkitPPC/bin/../lib/gcc/powerpc-gekko/4.2.4/../../../../powerpc-gekko/lib/libm.a(lib_a-sf_sin.o)
 .bss           0x00000000        0x0 /Programs/devkitpro/devkitPPC/bin/../lib/gcc/powerpc-gekko/4.2.4/../../../../powerpc-gekko/lib/libm.a(lib_a-sf_sin.o)
 .data          0x00000000        0x0 /Programs/devkitpro/devkitPPC/bin/../lib/gcc/powerpc-gekko/4.2.4/../../../../powerpc-gekko/lib/libm.a(lib_a-sf_sine.o)
 .bss           0x00000000        0x0 /Programs/devkitpro/devkitPPC/bin/../lib/gcc/powerpc-gekko/4.2.4/../../../../powerpc-gekko/lib/libm.a(lib_a-sf_sine.o)
 .data          0x00000000        0x0 /Programs/devkitpro/devkitPPC/bin/../lib/gcc/powerpc-gekko/4.2.4/../../../../powerpc-gekko/lib/libm.a(lib_a-sf_sqrt.o)
 .bss           0x00000000        0x0 /Programs/devkitpro/devkitPPC/bin/../lib/gcc/powerpc-gekko/4.2.4/../../../../powerpc-gekko/lib/libm.a(lib_a-sf_sqrt.o)
 .data          0x00000000        0x0 /Programs/devkitpro/devkitPPC/bin/../lib/gcc/powerpc-gekko/4.2.4/../../../../powerpc-gekko/lib/libm.a(lib_a-s_ispos.o)
 .bss           0x00000000        0x0 /Programs/devkitpro/devkitPPC/bin/../lib/gcc/powerpc-gekko/4.2.4/../../../../powerpc-gekko/lib/libm.a(lib_a-s_ispos.o)
 .data          0x00000000        0x0 /Programs/devkitpro/devkitPPC/bin/../lib/gcc/powerpc-gekko/4.2.4/../../../../powerpc-gekko/lib/libm.a(lib_a-s_ldexp.o)
 .bss           0x00000000        0x0 /Programs/devkitpro/devkitPPC/bin/../lib/gcc/powerpc-gekko/4.2.4/../../../../powerpc-gekko/lib/libm.a(lib_a-s_ldexp.o)
 .data          0x00000000        0x0 /Programs/devkitpro/devkitPPC/bin/../lib/gcc/powerpc-gekko/4.2.4/../../../../powerpc-gekko/lib/libm.a(lib_a-sf_ispos.o)
 .bss           0x00000000        0x0 /Programs/devkitpro/devkitPPC/bin/../lib/gcc/powerpc-gekko/4.2.4/../../../../powerpc-gekko/lib/libm.a(lib_a-sf_ispos.o)
 .data          0x00000000        0x0 /Programs/devkitpro/devkitPPC/bin/../lib/gcc/powerpc-gekko/4.2.4/../../../../powerpc-gekko/lib/libm.a(lib_a-sf_ldexp.o)
 .bss           0x00000000        0x0 /Programs/devkitpro/devkitPPC/bin/../lib/gcc/powerpc-gekko/4.2.4/../../../../powerpc-gekko/lib/libm.a(lib_a-sf_ldexp.o)
 .data          0x00000000        0x0 /Programs/devkitpro/devkitPPC/bin/../lib/gcc/powerpc-gekko/4.2.4/libgcc.a(_udivdi3.o)
 .bss           0x00000000        0x0 /Programs/devkitpro/devkitPPC/bin/../lib/gcc/powerpc-gekko/4.2.4/libgcc.a(_udivdi3.o)
 .data          0x00000000        0x0 /Programs/devkitpro/devkitPPC/bin/../lib/gcc/powerpc-gekko/4.2.4/../../../../powerpc-gekko/lib/libsysbase.a(abort.o)
 .bss           0x00000000        0x0 /Programs/devkitpro/devkitPPC/bin/../lib/gcc/powerpc-gekko/4.2.4/../../../../powerpc-gekko/lib/libsysbase.a(abort.o)
 .bss           0x00000000        0x0 /Programs/devkitpro/devkitPPC/bin/../lib/gcc/powerpc-gekko/4.2.4/../../../../powerpc-gekko/lib/libsysbase.a(iosupport.o)
 .data          0x00000000        0x0 /Programs/devkitpro/devkitPPC/bin/../lib/gcc/powerpc-gekko/4.2.4/../../../../powerpc-gekko/lib/libsysbase.a(_exit.o)
 .bss           0x00000000        0x0 /Programs/devkitpro/devkitPPC/bin/../lib/gcc/powerpc-gekko/4.2.4/../../../../powerpc-gekko/lib/libsysbase.a(_exit.o)
 .data          0x00000000        0x0 /Programs/devkitpro/devkitPPC/bin/../lib/gcc/powerpc-gekko/4.2.4/../../../../powerpc-gekko/lib/libsysbase.a(build_argv.o)
 .bss           0x00000000        0x0 /Programs/devkitpro/devkitPPC/bin/../lib/gcc/powerpc-gekko/4.2.4/../../../../powerpc-gekko/lib/libsysbase.a(build_argv.o)
 .data          0x00000000        0x0 /Programs/devkitpro/devkitPPC/bin/../lib/gcc/powerpc-gekko/4.2.4/../../../../powerpc-gekko/lib/libsysbase.a(syscall_support.o)
 .data          0x00000000        0x0 /Programs/devkitpro/devkitPPC/bin/../lib/gcc/powerpc-gekko/4.2.4/../../../../powerpc-gekko/lib/libc.a(lib_a-calloc.o)
 .bss           0x00000000        0x0 /Programs/devkitpro/devkitPPC/bin/../lib/gcc/powerpc-gekko/4.2.4/../../../../powerpc-gekko/lib/libc.a(lib_a-calloc.o)
 .data          0x00000000        0x0 /Programs/devkitpro/devkitPPC/bin/../lib/gcc/powerpc-gekko/4.2.4/../../../../powerpc-gekko/lib/libc.a(lib_a-callocr.o)
 .bss           0x00000000        0x0 /Programs/devkitpro/devkitPPC/bin/../lib/gcc/powerpc-gekko/4.2.4/../../../../powerpc-gekko/lib/libc.a(lib_a-callocr.o)
 .text          0x00000000        0x0 /Programs/devkitpro/devkitPPC/bin/../lib/gcc/powerpc-gekko/4.2.4/../../../../powerpc-gekko/lib/libc.a(lib_a-ctype_.o)
 .data          0x00000000        0x0 /Programs/devkitpro/devkitPPC/bin/../lib/gcc/powerpc-gekko/4.2.4/../../../../powerpc-gekko/lib/libc.a(lib_a-ctype_.o)
 .bss           0x00000000        0x0 /Programs/devkitpro/devkitPPC/bin/../lib/gcc/powerpc-gekko/4.2.4/../../../../powerpc-gekko/lib/libc.a(lib_a-ctype_.o)
 .data          0x00000000        0x0 /Programs/devkitpro/devkitPPC/bin/../lib/gcc/powerpc-gekko/4.2.4/../../../../powerpc-gekko/lib/libc.a(lib_a-errno.o)
 .bss           0x00000000        0x0 /Programs/devkitpro/devkitPPC/bin/../lib/gcc/powerpc-gekko/4.2.4/../../../../powerpc-gekko/lib/libc.a(lib_a-errno.o)
 .data          0x00000000        0x0 /Programs/devkitpro/devkitPPC/bin/../lib/gcc/powerpc-gekko/4.2.4/../../../../powerpc-gekko/lib/libc.a(lib_a-exit.o)
 .bss           0x00000000        0x0 /Programs/devkitpro/devkitPPC/bin/../lib/gcc/powerpc-gekko/4.2.4/../../../../powerpc-gekko/lib/libc.a(lib_a-exit.o)
 .data          0x00000000        0x0 /Programs/devkitpro/devkitPPC/bin/../lib/gcc/powerpc-gekko/4.2.4/../../../../powerpc-gekko/lib/libc.a(lib_a-fclose.o)
 .bss           0x00000000        0x0 /Programs/devkitpro/devkitPPC/bin/../lib/gcc/powerpc-gekko/4.2.4/../../../../powerpc-gekko/lib/libc.a(lib_a-fclose.o)
 .data          0x00000000        0x0 /Programs/devkitpro/devkitPPC/bin/../lib/gcc/powerpc-gekko/4.2.4/../../../../powerpc-gekko/lib/libc.a(lib_a-fflush.o)
 .bss           0x00000000        0x0 /Programs/devkitpro/devkitPPC/bin/../lib/gcc/powerpc-gekko/4.2.4/../../../../powerpc-gekko/lib/libc.a(lib_a-fflush.o)
 .data          0x00000000        0x0 /Programs/devkitpro/devkitPPC/bin/../lib/gcc/powerpc-gekko/4.2.4/../../../../powerpc-gekko/lib/libc.a(lib_a-findfp.o)
 .data          0x00000000        0x0 /Programs/devkitpro/devkitPPC/bin/../lib/gcc/powerpc-gekko/4.2.4/../../../../powerpc-gekko/lib/libc.a(lib_a-fopen.o)
 .bss           0x00000000        0x0 /Programs/devkitpro/devkitPPC/bin/../lib/gcc/powerpc-gekko/4.2.4/../../../../powerpc-gekko/lib/libc.a(lib_a-fopen.o)
 .data          0x00000000        0x0 /Programs/devkitpro/devkitPPC/bin/../lib/gcc/powerpc-gekko/4.2.4/../../../../powerpc-gekko/lib/libc.a(lib_a-fprintf.o)
 .bss           0x00000000        0x0 /Programs/devkitpro/devkitPPC/bin/../lib/gcc/powerpc-gekko/4.2.4/../../../../powerpc-gekko/lib/libc.a(lib_a-fprintf.o)
 .data          0x00000000        0x0 /Programs/devkitpro/devkitPPC/bin/../lib/gcc/powerpc-gekko/4.2.4/../../../../powerpc-gekko/lib/libc.a(lib_a-fread.o)
 .bss           0x00000000        0x0 /Programs/devkitpro/devkitPPC/bin/../lib/gcc/powerpc-gekko/4.2.4/../../../../powerpc-gekko/lib/libc.a(lib_a-fread.o)
 .data          0x00000000        0x0 /Programs/devkitpro/devkitPPC/bin/../lib/gcc/powerpc-gekko/4.2.4/../../../../powerpc-gekko/lib/libc.a(lib_a-freer.o)
 .bss           0x00000000        0x0 /Programs/devkitpro/devkitPPC/bin/../lib/gcc/powerpc-gekko/4.2.4/../../../../powerpc-gekko/lib/libc.a(lib_a-freer.o)
 .data          0x00000000        0x0 /Programs/devkitpro/devkitPPC/bin/../lib/gcc/powerpc-gekko/4.2.4/../../../../powerpc-gekko/lib/libc.a(lib_a-fseek.o)
 .bss           0x00000000        0x0 /Programs/devkitpro/devkitPPC/bin/../lib/gcc/powerpc-gekko/4.2.4/../../../../powerpc-gekko/lib/libc.a(lib_a-fseek.o)
 .data          0x00000000        0x0 /Programs/devkitpro/devkitPPC/bin/../lib/gcc/powerpc-gekko/4.2.4/../../../../powerpc-gekko/lib/libc.a(lib_a-fwalk.o)
 .bss           0x00000000        0x0 /Programs/devkitpro/devkitPPC/bin/../lib/gcc/powerpc-gekko/4.2.4/../../../../powerpc-gekko/lib/libc.a(lib_a-fwalk.o)
 .data          0x00000000        0x0 /Programs/devkitpro/devkitPPC/bin/../lib/gcc/powerpc-gekko/4.2.4/../../../../powerpc-gekko/lib/libc.a(lib_a-fwrite.o)
 .bss           0x00000000        0x0 /Programs/devkitpro/devkitPPC/bin/../lib/gcc/powerpc-gekko/4.2.4/../../../../powerpc-gekko/lib/libc.a(lib_a-fwrite.o)
 .text          0x00000000        0x0 /Programs/devkitpro/devkitPPC/bin/../lib/gcc/powerpc-gekko/4.2.4/../../../../powerpc-gekko/lib/libc.a(lib_a-impure.o)
 .bss           0x00000000        0x0 /Programs/devkitpro/devkitPPC/bin/../lib/gcc/powerpc-gekko/4.2.4/../../../../powerpc-gekko/lib/libc.a(lib_a-impure.o)
 .data          0x00000000        0x0 /Programs/devkitpro/devkitPPC/bin/../lib/gcc/powerpc-gekko/4.2.4/../../../../powerpc-gekko/lib/libc.a(lib_a-makebuf.o)
 .bss           0x00000000        0x0 /Programs/devkitpro/devkitPPC/bin/../lib/gcc/powerpc-gekko/4.2.4/../../../../powerpc-gekko/lib/libc.a(lib_a-makebuf.o)
 .data          0x00000000        0x0 /Programs/devkitpro/devkitPPC/bin/../lib/gcc/powerpc-gekko/4.2.4/../../../../powerpc-gekko/lib/libc.a(lib_a-malign.o)
 .bss           0x00000000        0x0 /Programs/devkitpro/devkitPPC/bin/../lib/gcc/powerpc-gekko/4.2.4/../../../../powerpc-gekko/lib/libc.a(lib_a-malign.o)
 .data          0x00000000        0x0 /Programs/devkitpro/devkitPPC/bin/../lib/gcc/powerpc-gekko/4.2.4/../../../../powerpc-gekko/lib/libc.a(lib_a-malignr.o)
 .bss           0x00000000        0x0 /Programs/devkitpro/devkitPPC/bin/../lib/gcc/powerpc-gekko/4.2.4/../../../../powerpc-gekko/lib/libc.a(lib_a-malignr.o)
 .data          0x00000000        0x0 /Programs/devkitpro/devkitPPC/bin/../lib/gcc/powerpc-gekko/4.2.4/../../../../powerpc-gekko/lib/libc.a(lib_a-malloc.o)
 .bss           0x00000000        0x0 /Programs/devkitpro/devkitPPC/bin/../lib/gcc/powerpc-gekko/4.2.4/../../../../powerpc-gekko/lib/libc.a(lib_a-malloc.o)
 .data          0x00000000        0x0 /Programs/devkitpro/devkitPPC/bin/../lib/gcc/powerpc-gekko/4.2.4/../../../../powerpc-gekko/lib/libc.a(lib_a-memcmp.o)
 .bss           0x00000000        0x0 /Programs/devkitpro/devkitPPC/bin/../lib/gcc/powerpc-gekko/4.2.4/../../../../powerpc-gekko/lib/libc.a(lib_a-memcmp.o)
 .data          0x00000000        0x0 /Programs/devkitpro/devkitPPC/bin/../lib/gcc/powerpc-gekko/4.2.4/../../../../powerpc-gekko/lib/libc.a(lib_a-memcpy.o)
 .bss           0x00000000        0x0 /Programs/devkitpro/devkitPPC/bin/../lib/gcc/powerpc-gekko/4.2.4/../../../../powerpc-gekko/lib/libc.a(lib_a-memcpy.o)
 .data          0x00000000        0x0 /Programs/devkitpro/devkitPPC/bin/../lib/gcc/powerpc-gekko/4.2.4/../../../../powerpc-gekko/lib/libc.a(lib_a-memmove.o)
 .bss           0x00000000        0x0 /Programs/devkitpro/devkitPPC/bin/../lib/gcc/powerpc-gekko/4.2.4/../../../../powerpc-gekko/lib/libc.a(lib_a-memmove.o)
 .data          0x00000000        0x0 /Programs/devkitpro/devkitPPC/bin/../lib/gcc/powerpc-gekko/4.2.4/../../../../powerpc-gekko/lib/libc.a(lib_a-memset.o)
 .bss           0x00000000        0x0 /Programs/devkitpro/devkitPPC/bin/../lib/gcc/powerpc-gekko/4.2.4/../../../../powerpc-gekko/lib/libc.a(lib_a-memset.o)
 .data          0x00000000        0x0 /Programs/devkitpro/devkitPPC/bin/../lib/gcc/powerpc-gekko/4.2.4/../../../../powerpc-gekko/lib/libc.a(lib_a-printf.o)
 .bss           0x00000000        0x0 /Programs/devkitpro/devkitPPC/bin/../lib/gcc/powerpc-gekko/4.2.4/../../../../powerpc-gekko/lib/libc.a(lib_a-printf.o)
 .data          0x00000000        0x0 /Programs/devkitpro/devkitPPC/bin/../lib/gcc/powerpc-gekko/4.2.4/../../../../powerpc-gekko/lib/libc.a(lib_a-puts.o)
 .bss           0x00000000        0x0 /Programs/devkitpro/devkitPPC/bin/../lib/gcc/powerpc-gekko/4.2.4/../../../../powerpc-gekko/lib/libc.a(lib_a-puts.o)
 .data          0x00000000        0x0 /Programs/devkitpro/devkitPPC/bin/../lib/gcc/powerpc-gekko/4.2.4/../../../../powerpc-gekko/lib/libc.a(lib_a-realloc.o)
 .bss           0x00000000        0x0 /Programs/devkitpro/devkitPPC/bin/../lib/gcc/powerpc-gekko/4.2.4/../../../../powerpc-gekko/lib/libc.a(lib_a-realloc.o)
 .data          0x00000000        0x0 /Programs/devkitpro/devkitPPC/bin/../lib/gcc/powerpc-gekko/4.2.4/../../../../powerpc-gekko/lib/libc.a(lib_a-reallocr.o)
 .bss           0x00000000        0x0 /Programs/devkitpro/devkitPPC/bin/../lib/gcc/powerpc-gekko/4.2.4/../../../../powerpc-gekko/lib/libc.a(lib_a-reallocr.o)
 .data          0x00000000        0x0 /Programs/devkitpro/devkitPPC/bin/../lib/gcc/powerpc-gekko/4.2.4/../../../../powerpc-gekko/lib/libc.a(lib_a-reent.o)
 .bss           0x00000000        0x0 /Programs/devkitpro/devkitPPC/bin/../lib/gcc/powerpc-gekko/4.2.4/../../../../powerpc-gekko/lib/libc.a(lib_a-reent.o)
 .data          0x00000000        0x0 /Programs/devkitpro/devkitPPC/bin/../lib/gcc/powerpc-gekko/4.2.4/../../../../powerpc-gekko/lib/libc.a(lib_a-refill.o)
 .bss           0x00000000        0x0 /Programs/devkitpro/devkitPPC/bin/../lib/gcc/powerpc-gekko/4.2.4/../../../../powerpc-gekko/lib/libc.a(lib_a-refill.o)
 .data          0x00000000        0x0 /Programs/devkitpro/devkitPPC/bin/../lib/gcc/powerpc-gekko/4.2.4/../../../../powerpc-gekko/lib/libc.a(lib_a-setvbuf.o)
 .bss           0x00000000        0x0 /Programs/devkitpro/devkitPPC/bin/../lib/gcc/powerpc-gekko/4.2.4/../../../../powerpc-gekko/lib/libc.a(lib_a-setvbuf.o)
 .data          0x00000000        0x0 /Programs/devkitpro/devkitPPC/bin/../lib/gcc/powerpc-gekko/4.2.4/../../../../powerpc-gekko/lib/libc.a(lib_a-snprintf.o)
 .bss           0x00000000        0x0 /Programs/devkitpro/devkitPPC/bin/../lib/gcc/powerpc-gekko/4.2.4/../../../../powerpc-gekko/lib/libc.a(lib_a-snprintf.o)
 .data          0x00000000        0x0 /Programs/devkitpro/devkitPPC/bin/../lib/gcc/powerpc-gekko/4.2.4/../../../../powerpc-gekko/lib/libc.a(lib_a-sprintf.o)
 .bss           0x00000000        0x0 /Programs/devkitpro/devkitPPC/bin/../lib/gcc/powerpc-gekko/4.2.4/../../../../powerpc-gekko/lib/libc.a(lib_a-sprintf.o)
 .data          0x00000000        0x0 /Programs/devkitpro/devkitPPC/bin/../lib/gcc/powerpc-gekko/4.2.4/../../../../powerpc-gekko/lib/libc.a(lib_a-stdio.o)
 .bss           0x00000000        0x0 /Programs/devkitpro/devkitPPC/bin/../lib/gcc/powerpc-gekko/4.2.4/../../../../powerpc-gekko/lib/libc.a(lib_a-stdio.o)
 .data          0x00000000        0x0 /Programs/devkitpro/devkitPPC/bin/../lib/gcc/powerpc-gekko/4.2.4/../../../../powerpc-gekko/lib/libc.a(lib_a-strchr.o)
 .bss           0x00000000        0x0 /Programs/devkitpro/devkitPPC/bin/../lib/gcc/powerpc-gekko/4.2.4/../../../../powerpc-gekko/lib/libc.a(lib_a-strchr.o)
 .data          0x00000000        0x0 /Programs/devkitpro/devkitPPC/bin/../lib/gcc/powerpc-gekko/4.2.4/../../../../powerpc-gekko/lib/libc.a(lib_a-strcmp.o)
 .bss           0x00000000        0x0 /Programs/devkitpro/devkitPPC/bin/../lib/gcc/powerpc-gekko/4.2.4/../../../../powerpc-gekko/lib/libc.a(lib_a-strcmp.o)
 .data          0x00000000        0x0 /Programs/devkitpro/devkitPPC/bin/../lib/gcc/powerpc-gekko/4.2.4/../../../../powerpc-gekko/lib/libc.a(lib_a-strcpy.o)
 .bss           0x00000000        0x0 /Programs/devkitpro/devkitPPC/bin/../lib/gcc/powerpc-gekko/4.2.4/../../../../powerpc-gekko/lib/libc.a(lib_a-strcpy.o)
 .data          0x00000000        0x0 /Programs/devkitpro/devkitPPC/bin/../lib/gcc/powerpc-gekko/4.2.4/../../../../powerpc-gekko/lib/libc.a(lib_a-strdup.o)
 .bss           0x00000000        0x0 /Programs/devkitpro/devkitPPC/bin/../lib/gcc/powerpc-gekko/4.2.4/../../../../powerpc-gekko/lib/libc.a(lib_a-strdup.o)
 .data          0x00000000        0x0 /Programs/devkitpro/devkitPPC/bin/../lib/gcc/powerpc-gekko/4.2.4/../../../../powerpc-gekko/lib/libc.a(lib_a-strdup_r.o)
 .bss           0x00000000        0x0 /Programs/devkitpro/devkitPPC/bin/../lib/gcc/powerpc-gekko/4.2.4/../../../../powerpc-gekko/lib/libc.a(lib_a-strdup_r.o)
 .data          0x00000000        0x0 /Programs/devkitpro/devkitPPC/bin/../lib/gcc/powerpc-gekko/4.2.4/../../../../powerpc-gekko/lib/libc.a(lib_a-strlen.o)
 .bss           0x00000000        0x0 /Programs/devkitpro/devkitPPC/bin/../lib/gcc/powerpc-gekko/4.2.4/../../../../powerpc-gekko/lib/libc.a(lib_a-strlen.o)
 .data          0x00000000        0x0 /Programs/devkitpro/devkitPPC/bin/../lib/gcc/powerpc-gekko/4.2.4/../../../../powerpc-gekko/lib/libc.a(lib_a-strncasecmp.o)
 .bss           0x00000000        0x0 /Programs/devkitpro/devkitPPC/bin/../lib/gcc/powerpc-gekko/4.2.4/../../../../powerpc-gekko/lib/libc.a(lib_a-strncasecmp.o)
 .data          0x00000000        0x0 /Programs/devkitpro/devkitPPC/bin/../lib/gcc/powerpc-gekko/4.2.4/../../../../powerpc-gekko/lib/libc.a(lib_a-strncmp.o)
 .bss           0x00000000        0x0 /Programs/devkitpro/devkitPPC/bin/../lib/gcc/powerpc-gekko/4.2.4/../../../../powerpc-gekko/lib/libc.a(lib_a-strncmp.o)
 .data          0x00000000        0x0 /Programs/devkitpro/devkitPPC/bin/../lib/gcc/powerpc-gekko/4.2.4/../../../../powerpc-gekko/lib/libc.a(lib_a-strncpy.o)
 .bss           0x00000000        0x0 /Programs/devkitpro/devkitPPC/bin/../lib/gcc/powerpc-gekko/4.2.4/../../../../powerpc-gekko/lib/libc.a(lib_a-strncpy.o)
 .data          0x00000000        0x0 /Programs/devkitpro/devkitPPC/bin/../lib/gcc/powerpc-gekko/4.2.4/../../../../powerpc-gekko/lib/libc.a(lib_a-strnlen.o)
 .bss           0x00000000        0x0 /Programs/devkitpro/devkitPPC/bin/../lib/gcc/powerpc-gekko/4.2.4/../../../../powerpc-gekko/lib/libc.a(lib_a-strnlen.o)
 .data          0x00000000        0x0 /Programs/devkitpro/devkitPPC/bin/../lib/gcc/powerpc-gekko/4.2.4/../../../../powerpc-gekko/lib/libc.a(lib_a-strtoul.o)
 .bss           0x00000000        0x0 /Programs/devkitpro/devkitPPC/bin/../lib/gcc/powerpc-gekko/4.2.4/../../../../powerpc-gekko/lib/libc.a(lib_a-strtoul.o)
 .data          0x00000000        0x0 /Programs/devkitpro/devkitPPC/bin/../lib/gcc/powerpc-gekko/4.2.4/../../../../powerpc-gekko/lib/libc.a(lib_a-strtoull_r.o)
 .bss           0x00000000        0x0 /Programs/devkitpro/devkitPPC/bin/../lib/gcc/powerpc-gekko/4.2.4/../../../../powerpc-gekko/lib/libc.a(lib_a-strtoull_r.o)
 .data          0x00000000        0x0 /Programs/devkitpro/devkitPPC/bin/../lib/gcc/powerpc-gekko/4.2.4/../../../../powerpc-gekko/lib/libc.a(lib_a-syswrite.o)
 .bss           0x00000000        0x0 /Programs/devkitpro/devkitPPC/bin/../lib/gcc/powerpc-gekko/4.2.4/../../../../powerpc-gekko/lib/libc.a(lib_a-syswrite.o)
 .data          0x00000000        0x0 /Programs/devkitpro/devkitPPC/bin/../lib/gcc/powerpc-gekko/4.2.4/../../../../powerpc-gekko/lib/libc.a(lib_a-vfprintf.o)
 .bss           0x00000000        0x0 /Programs/devkitpro/devkitPPC/bin/../lib/gcc/powerpc-gekko/4.2.4/../../../../powerpc-gekko/lib/libc.a(lib_a-vfprintf.o)
 .data          0x00000000        0x0 /Programs/devkitpro/devkitPPC/bin/../lib/gcc/powerpc-gekko/4.2.4/../../../../powerpc-gekko/lib/libc.a(lib_a-wcrtomb.o)
 .bss           0x00000000        0x0 /Programs/devkitpro/devkitPPC/bin/../lib/gcc/powerpc-gekko/4.2.4/../../../../powerpc-gekko/lib/libc.a(lib_a-wcrtomb.o)
 .data          0x00000000        0x0 /Programs/devkitpro/devkitPPC/bin/../lib/gcc/powerpc-gekko/4.2.4/../../../../powerpc-gekko/lib/libc.a(lib_a-wcsrtombs.o)
 .bss           0x00000000        0x0 /Programs/devkitpro/devkitPPC/bin/../lib/gcc/powerpc-gekko/4.2.4/../../../../powerpc-gekko/lib/libc.a(lib_a-wcsrtombs.o)
 .data          0x00000000        0x0 /Programs/devkitpro/devkitPPC/bin/../lib/gcc/powerpc-gekko/4.2.4/../../../../powerpc-gekko/lib/libc.a(lib_a-wctomb_r.o)
 .bss           0x00000000        0x0 /Programs/devkitpro/devkitPPC/bin/../lib/gcc/powerpc-gekko/4.2.4/../../../../powerpc-gekko/lib/libc.a(lib_a-wctomb_r.o)
 .data          0x00000000        0x0 /Programs/devkitpro/devkitPPC/bin/../lib/gcc/powerpc-gekko/4.2.4/../../../../powerpc-gekko/lib/libc.a(lib_a-wsetup.o)
 .bss           0x00000000        0x0 /Programs/devkitpro/devkitPPC/bin/../lib/gcc/powerpc-gekko/4.2.4/../../../../powerpc-gekko/lib/libc.a(lib_a-wsetup.o)
 .data          0x00000000        0x0 /Programs/devkitpro/devkitPPC/bin/../lib/gcc/powerpc-gekko/4.2.4/../../../../powerpc-gekko/lib/libc.a(lib_a-__call_atexit.o)
 .bss           0x00000000        0x0 /Programs/devkitpro/devkitPPC/bin/../lib/gcc/powerpc-gekko/4.2.4/../../../../powerpc-gekko/lib/libc.a(lib_a-__call_atexit.o)
 .data          0x00000000        0x0 /Programs/devkitpro/devkitPPC/bin/../lib/gcc/powerpc-gekko/4.2.4/../../../../powerpc-gekko/lib/libc.a(lib_a-dtoa.o)
 .bss           0x00000000        0x0 /Programs/devkitpro/devkitPPC/bin/../lib/gcc/powerpc-gekko/4.2.4/../../../../powerpc-gekko/lib/libc.a(lib_a-dtoa.o)
 .data          0x00000000        0x0 /Programs/devkitpro/devkitPPC/bin/../lib/gcc/powerpc-gekko/4.2.4/../../../../powerpc-gekko/lib/libc.a(lib_a-flags.o)
 .bss           0x00000000        0x0 /Programs/devkitpro/devkitPPC/bin/../lib/gcc/powerpc-gekko/4.2.4/../../../../powerpc-gekko/lib/libc.a(lib_a-flags.o)
 .data          0x00000000        0x0 /Programs/devkitpro/devkitPPC/bin/../lib/gcc/powerpc-gekko/4.2.4/../../../../powerpc-gekko/lib/libc.a(lib_a-fvwrite.o)
 .bss           0x00000000        0x0 /Programs/devkitpro/devkitPPC/bin/../lib/gcc/powerpc-gekko/4.2.4/../../../../powerpc-gekko/lib/libc.a(lib_a-fvwrite.o)
 .bss           0x00000000        0x0 /Programs/devkitpro/devkitPPC/bin/../lib/gcc/powerpc-gekko/4.2.4/../../../../powerpc-gekko/lib/libc.a(lib_a-locale.o)
 .sbss          0x00000000        0x0 /Programs/devkitpro/devkitPPC/bin/../lib/gcc/powerpc-gekko/4.2.4/../../../../powerpc-gekko/lib/libc.a(lib_a-locale.o)
 .data          0x00000000        0x0 /Programs/devkitpro/devkitPPC/bin/../lib/gcc/powerpc-gekko/4.2.4/../../../../powerpc-gekko/lib/libc.a(lib_a-mbtowc_r.o)
 .bss           0x00000000        0x0 /Programs/devkitpro/devkitPPC/bin/../lib/gcc/powerpc-gekko/4.2.4/../../../../powerpc-gekko/lib/libc.a(lib_a-mbtowc_r.o)
 .data          0x00000000        0x0 /Programs/devkitpro/devkitPPC/bin/../lib/gcc/powerpc-gekko/4.2.4/../../../../powerpc-gekko/lib/libc.a(lib_a-memchr.o)
 .bss           0x00000000        0x0 /Programs/devkitpro/devkitPPC/bin/../lib/gcc/powerpc-gekko/4.2.4/../../../../powerpc-gekko/lib/libc.a(lib_a-memchr.o)
 .data          0x00000000        0x0 /Programs/devkitpro/devkitPPC/bin/../lib/gcc/powerpc-gekko/4.2.4/../../../../powerpc-gekko/lib/libc.a(lib_a-mprec.o)
 .bss           0x00000000        0x0 /Programs/devkitpro/devkitPPC/bin/../lib/gcc/powerpc-gekko/4.2.4/../../../../powerpc-gekko/lib/libc.a(lib_a-mprec.o)
 .data          0x00000000        0x0 /Programs/devkitpro/devkitPPC/bin/../lib/gcc/powerpc-gekko/4.2.4/../../../../powerpc-gekko/lib/libc.a(lib_a-s_isinfd.o)
 .bss           0x00000000        0x0 /Programs/devkitpro/devkitPPC/bin/../lib/gcc/powerpc-gekko/4.2.4/../../../../powerpc-gekko/lib/libc.a(lib_a-s_isinfd.o)
 .data          0x00000000        0x0 /Programs/devkitpro/devkitPPC/bin/../lib/gcc/powerpc-gekko/4.2.4/../../../../powerpc-gekko/lib/libc.a(lib_a-s_isnand.o)
 .bss           0x00000000        0x0 /Programs/devkitpro/devkitPPC/bin/../lib/gcc/powerpc-gekko/4.2.4/../../../../powerpc-gekko/lib/libc.a(lib_a-s_isnand.o)
 .data          0x00000000        0x0 /Programs/devkitpro/devkitPPC/bin/../lib/gcc/powerpc-gekko/4.2.4/../../../../powerpc-gekko/lib/libsysbase.a(close.o)
 .bss           0x00000000        0x0 /Programs/devkitpro/devkitPPC/bin/../lib/gcc/powerpc-gekko/4.2.4/../../../../powerpc-gekko/lib/libsysbase.a(close.o)
 .data          0x00000000        0x0 /Programs/devkitpro/devkitPPC/bin/../lib/gcc/powerpc-gekko/4.2.4/../../../../powerpc-gekko/lib/libsysbase.a(fstat.o)
 .bss           0x00000000        0x0 /Programs/devkitpro/devkitPPC/bin/../lib/gcc/powerpc-gekko/4.2.4/../../../../powerpc-gekko/lib/libsysbase.a(fstat.o)
 .data          0x00000000        0x0 /Programs/devkitpro/devkitPPC/bin/../lib/gcc/powerpc-gekko/4.2.4/../../../../powerpc-gekko/lib/libsysbase.a(isatty.o)
 .bss           0x00000000        0x0 /Programs/devkitpro/devkitPPC/bin/../lib/gcc/powerpc-gekko/4.2.4/../../../../powerpc-gekko/lib/libsysbase.a(isatty.o)
 .data          0x00000000        0x0 /Programs/devkitpro/devkitPPC/bin/../lib/gcc/powerpc-gekko/4.2.4/../../../../powerpc-gekko/lib/libsysbase.a(lseek.o)
 .bss           0x00000000        0x0 /Programs/devkitpro/devkitPPC/bin/../lib/gcc/powerpc-gekko/4.2.4/../../../../powerpc-gekko/lib/libsysbase.a(lseek.o)
 .data          0x00000000        0x0 /Programs/devkitpro/devkitPPC/bin/../lib/gcc/powerpc-gekko/4.2.4/../../../../powerpc-gekko/lib/libsysbase.a(open.o)
 .bss           0x00000000        0x0 /Programs/devkitpro/devkitPPC/bin/../lib/gcc/powerpc-gekko/4.2.4/../../../../powerpc-gekko/lib/libsysbase.a(open.o)
 .data          0x00000000        0x0 /Programs/devkitpro/devkitPPC/bin/../lib/gcc/powerpc-gekko/4.2.4/../../../../powerpc-gekko/lib/libsysbase.a(read.o)
 .bss           0x00000000        0x0 /Programs/devkitpro/devkitPPC/bin/../lib/gcc/powerpc-gekko/4.2.4/../../../../powerpc-gekko/lib/libsysbase.a(read.o)
 .data          0x00000000        0x0 /Programs/devkitpro/devkitPPC/bin/../lib/gcc/powerpc-gekko/4.2.4/../../../../powerpc-gekko/lib/libsysbase.a(sbrk.o)
 .bss           0x00000000        0x0 /Programs/devkitpro/devkitPPC/bin/../lib/gcc/powerpc-gekko/4.2.4/../../../../powerpc-gekko/lib/libsysbase.a(sbrk.o)
 .data          0x00000000        0x0 /Programs/devkitpro/devkitPPC/bin/../lib/gcc/powerpc-gekko/4.2.4/../../../../powerpc-gekko/lib/libsysbase.a(write.o)
 .bss           0x00000000        0x0 /Programs/devkitpro/devkitPPC/bin/../lib/gcc/powerpc-gekko/4.2.4/../../../../powerpc-gekko/lib/libsysbase.a(write.o)
 .data          0x00000000        0x0 /Programs/devkitpro/devkitPPC/bin/../lib/gcc/powerpc-gekko/4.2.4/../../../../powerpc-gekko/lib/libsysbase.a(flock.o)
 .bss           0x00000000        0x0 /Programs/devkitpro/devkitPPC/bin/../lib/gcc/powerpc-gekko/4.2.4/../../../../powerpc-gekko/lib/libsysbase.a(flock.o)
 .data          0x00000000        0x0 /Programs/devkitpro/devkitPPC/bin/../lib/gcc/powerpc-gekko/4.2.4/../../../../powerpc-gekko/lib/libsysbase.a(handle_manager.o)
 .data          0x00000000        0x0 /Programs/devkitpro/devkitPPC/bin/../lib/gcc/powerpc-gekko/4.2.4/libgcc.a(_umoddi3.o)
 .bss           0x00000000        0x0 /Programs/devkitpro/devkitPPC/bin/../lib/gcc/powerpc-gekko/4.2.4/libgcc.a(_umoddi3.o)
 .text          0x00000000        0x0 /Programs/devkitpro/devkitPPC/bin/../lib/gcc/powerpc-gekko/4.2.4/crtsavres.o
 .data          0x00000000        0x0 /Programs/devkitpro/devkitPPC/bin/../lib/gcc/powerpc-gekko/4.2.4/crtsavres.o
 .bss           0x00000000        0x0 /Programs/devkitpro/devkitPPC/bin/../lib/gcc/powerpc-gekko/4.2.4/crtsavres.o
 .data          0x00000000        0x0 /Programs/devkitpro/devkitPPC/bin/../lib/gcc/powerpc-gekko/4.2.4/crtend.o
 .bss           0x00000000        0x0 /Programs/devkitpro/devkitPPC/bin/../lib/gcc/powerpc-gekko/4.2.4/crtend.o
 .text          0x00000000        0x0 /Programs/devkitpro/devkitPPC/bin/../lib/gcc/powerpc-gekko/4.2.4/ecrtn.o
 .data          0x00000000        0x0 /Programs/devkitpro/devkitPPC/bin/../lib/gcc/powerpc-gekko/4.2.4/ecrtn.o
 .bss           0x00000000        0x0 /Programs/devkitpro/devkitPPC/bin/../lib/gcc/powerpc-gekko/4.2.4/ecrtn.o
 .got           0x00000000        0x0 /Programs/devkitpro/devkitPPC/bin/../lib/gcc/powerpc-gekko/4.2.4/ecrtn.o
 .got1          0x00000000        0x0 /Programs/devkitpro/devkitPPC/bin/../lib/gcc/powerpc-gekko/4.2.4/ecrtn.o
 .got2          0x00000000        0x0 /Programs/devkitpro/devkitPPC/bin/../lib/gcc/powerpc-gekko/4.2.4/ecrtn.o
 .fixup         0x00000000        0x0 /Programs/devkitpro/devkitPPC/bin/../lib/gcc/powerpc-gekko/4.2.4/ecrtn.o
 .sdata         0x00000000        0x0 /Programs/devkitpro/devkitPPC/bin/../lib/gcc/powerpc-gekko/4.2.4/ecrtn.o
 .sbss          0x00000000        0x0 /Programs/devkitpro/devkitPPC/bin/../lib/gcc/powerpc-gekko/4.2.4/ecrtn.o
 .sdata2        0x00000000        0x0 /Programs/devkitpro/devkitPPC/bin/../lib/gcc/powerpc-gekko/4.2.4/ecrtn.o
 .sbss2         0x00000000        0x0 /Programs/devkitpro/devkitPPC/bin/../lib/gcc/powerpc-gekko/4.2.4/ecrtn.o
 .gcc_except_table
                0x00000000        0x0 /Programs/devkitpro/devkitPPC/bin/../lib/gcc/powerpc-gekko/4.2.4/ecrtn.o

Memory Configuration

Name             Origin             Length             Attributes
*default*        0x00000000         0xffffffff

Linker script and memory map

                0x00003400                . = 0x3400

.stub
 *(.stub)
                0x80004000                . = 0x80004000

.init           0x80004000      0x208
 *crt0.o(*.init)
 .init          0x80004000      0x1e4 /Programs/devkitpro/libogc/lib/wii/libogc.a(ogc_crt0.o)
                0x8000419c                _memset
                0x80004000                _start
                0x800041cc                video_line
 *(.init)
 .init          0x800041e4        0xc /Programs/devkitpro/devkitPPC/bin/../lib/gcc/powerpc-gekko/4.2.4/ecrti.o
                0x800041e4                __init
 .init          0x800041f0        0x4 /Programs/devkitpro/devkitPPC/bin/../lib/gcc/powerpc-gekko/4.2.4/crtbegin.o
 .init          0x800041f4        0x4 /Programs/devkitpro/devkitPPC/bin/../lib/gcc/powerpc-gekko/4.2.4/crtend.o
 .init          0x800041f8       0x10 /Programs/devkitpro/devkitPPC/bin/../lib/gcc/powerpc-gekko/4.2.4/ecrtn.o

.plt
 *(.plt)

.interp
 *(.interp)

.hash
 *(.hash)

.dynsym
 *(.dynsym)

.dynstr
 *(.dynstr)

.gnu.version
 *(.gnu.version)

.gnu.version_d
 *(.gnu.version_d)

.gnu.version_r
 *(.gnu.version_r)

.rel.init
 *(.rel.init)

.rela.init      0x80004208        0x0
 *(.rela.init)
 .rela.init     0x00000000        0x0 /Programs/devkitpro/devkitPPC/bin/../lib/gcc/powerpc-gekko/4.2.4/crtbegin.o

.rel.text
 *(.rel.text .rel.text.* .rel.gnu.linkonce.t.*)

.rela.text      0x80004208        0x0
 *(.rela.text .rela.text.* .rela.gnu.linkonce.t.*)
 .rela.text     0x00000000        0x0 /Programs/devkitpro/devkitPPC/bin/../lib/gcc/powerpc-gekko/4.2.4/crtbegin.o
 .rela.text.wiiuse_init_cmd_queue
                0x00000000        0x0 /Programs/devkitpro/devkitPPC/bin/../lib/gcc/powerpc-gekko/4.2.4/crtbegin.o
 .rela.text.wiiuse_init
                0x00000000        0x0 /Programs/devkitpro/devkitPPC/bin/../lib/gcc/powerpc-gekko/4.2.4/crtbegin.o
 .rela.text.guitar_hero_3_handshake
                0x00000000        0x0 /Programs/devkitpro/devkitPPC/bin/../lib/gcc/powerpc-gekko/4.2.4/crtbegin.o
 .rela.text.wiiuse_handshake_expansion
                0x00000000        0x0 /Programs/devkitpro/devkitPPC/bin/../lib/gcc/powerpc-gekko/4.2.4/crtbegin.o
 .rela.text.wiiuse_handshake
                0x00000000        0x0 /Programs/devkitpro/devkitPPC/bin/../lib/gcc/powerpc-gekko/4.2.4/crtbegin.o
 .rela.text.bt_alarmhandler
                0x00000000        0x0 /Programs/devkitpro/devkitPPC/bin/../lib/gcc/powerpc-gekko/4.2.4/crtbegin.o
 .rela.text.CON_EnableGecko
                0x00000000        0x0 /Programs/devkitpro/devkitPPC/bin/../lib/gcc/powerpc-gekko/4.2.4/crtbegin.o
 .rela.text.__console_init
                0x00000000        0x0 /Programs/devkitpro/devkitPPC/bin/../lib/gcc/powerpc-gekko/4.2.4/crtbegin.o
 .rela.text.__console_init_ex
                0x00000000        0x0 /Programs/devkitpro/devkitPPC/bin/../lib/gcc/powerpc-gekko/4.2.4/crtbegin.o
 .rela.text.__lwp_rotate_readyqueue
                0x00000000        0x0 /Programs/devkitpro/devkitPPC/bin/../lib/gcc/powerpc-gekko/4.2.4/crtbegin.o
 .rela.text.__lwp_thread_setstate
                0x00000000        0x0 /Programs/devkitpro/devkitPPC/bin/../lib/gcc/powerpc-gekko/4.2.4/crtbegin.o
 .rela.text.__lwp_thread_setpriority
                0x00000000        0x0 /Programs/devkitpro/devkitPPC/bin/../lib/gcc/powerpc-gekko/4.2.4/crtbegin.o
 .rela.text.__lwp_thread_ready
                0x00000000        0x0 /Programs/devkitpro/devkitPPC/bin/../lib/gcc/powerpc-gekko/4.2.4/crtbegin.o
 .rela.text.__lwp_thread_close
                0x00000000        0x0 /Programs/devkitpro/devkitPPC/bin/../lib/gcc/powerpc-gekko/4.2.4/crtbegin.o
 .rela.text.__lwp_thread_closeall
                0x00000000        0x0 /Programs/devkitpro/devkitPPC/bin/../lib/gcc/powerpc-gekko/4.2.4/crtbegin.o
 .rela.text.__lwp_thread_stopmultitasking
                0x00000000        0x0 /Programs/devkitpro/devkitPPC/bin/../lib/gcc/powerpc-gekko/4.2.4/crtbegin.o
 .rela.text.__lwp_thread_changepriority
                0x00000000        0x0 /Programs/devkitpro/devkitPPC/bin/../lib/gcc/powerpc-gekko/4.2.4/crtbegin.o
 .rela.text.__lwp_thread_coreinit
                0x00000000        0x0 /Programs/devkitpro/devkitPPC/bin/../lib/gcc/powerpc-gekko/4.2.4/crtbegin.o
 .rela.text.__lwp_thread_suspend
                0x00000000        0x0 /Programs/devkitpro/devkitPPC/bin/../lib/gcc/powerpc-gekko/4.2.4/crtbegin.o
 .rela.text.__lwp_thread_startmultitasking
                0x00000000        0x0 /Programs/devkitpro/devkitPPC/bin/../lib/gcc/powerpc-gekko/4.2.4/crtbegin.o
 .rela.text.__lwp_thread_tickle_timeslice
                0x00000000        0x0 /Programs/devkitpro/devkitPPC/bin/../lib/gcc/powerpc-gekko/4.2.4/crtbegin.o
 .rela.text.__lwp_thread_context
                0x00000000        0x0 /Programs/devkitpro/devkitPPC/bin/../lib/gcc/powerpc-gekko/4.2.4/crtbegin.o
 .rela.text.__lwp_thread_exists
                0x00000000        0x0 /Programs/devkitpro/devkitPPC/bin/../lib/gcc/powerpc-gekko/4.2.4/crtbegin.o
 .rela.text.__lwp_thread_isalive
                0x00000000        0x0 /Programs/devkitpro/devkitPPC/bin/../lib/gcc/powerpc-gekko/4.2.4/crtbegin.o
 .rela.text.__lwp_sysinit
                0x00000000        0x0 /Programs/devkitpro/devkitPPC/bin/../lib/gcc/powerpc-gekko/4.2.4/crtbegin.o
 .rela.text.LWP_ThreadSignal
                0x00000000        0x0 /Programs/devkitpro/devkitPPC/bin/../lib/gcc/powerpc-gekko/4.2.4/crtbegin.o
 .rela.text.LWP_ThreadBroadcast
                0x00000000        0x0 /Programs/devkitpro/devkitPPC/bin/../lib/gcc/powerpc-gekko/4.2.4/crtbegin.o
 .rela.text.LWP_ThreadSleep
                0x00000000        0x0 /Programs/devkitpro/devkitPPC/bin/../lib/gcc/powerpc-gekko/4.2.4/crtbegin.o
 .rela.text.LWP_CloseQueue
                0x00000000        0x0 /Programs/devkitpro/devkitPPC/bin/../lib/gcc/powerpc-gekko/4.2.4/crtbegin.o
 .rela.text.LWP_InitQueue
                0x00000000        0x0 /Programs/devkitpro/devkitPPC/bin/../lib/gcc/powerpc-gekko/4.2.4/crtbegin.o
 .rela.text.LWP_JoinThread
                0x00000000        0x0 /Programs/devkitpro/devkitPPC/bin/../lib/gcc/powerpc-gekko/4.2.4/crtbegin.o
 .rela.text.LWP_ThreadIsSuspended
                0x00000000        0x0 /Programs/devkitpro/devkitPPC/bin/../lib/gcc/powerpc-gekko/4.2.4/crtbegin.o
 .rela.text.LWP_SetThreadPriority
                0x00000000        0x0 /Programs/devkitpro/devkitPPC/bin/../lib/gcc/powerpc-gekko/4.2.4/crtbegin.o
 .rela.text.LWP_ResumeThread
                0x00000000        0x0 /Programs/devkitpro/devkitPPC/bin/../lib/gcc/powerpc-gekko/4.2.4/crtbegin.o
 .rela.text.LWP_SuspendThread
                0x00000000        0x0 /Programs/devkitpro/devkitPPC/bin/../lib/gcc/powerpc-gekko/4.2.4/crtbegin.o
 .rela.text.LWP_CreateThread
                0x00000000        0x0 /Programs/devkitpro/devkitPPC/bin/../lib/gcc/powerpc-gekko/4.2.4/crtbegin.o
 .rela.text.__lwp_stack_free
                0x00000000        0x0 /Programs/devkitpro/devkitPPC/bin/../lib/gcc/powerpc-gekko/4.2.4/crtbegin.o
 .rela.text.__lwp_stack_allocate
                0x00000000        0x0 /Programs/devkitpro/devkitPPC/bin/../lib/gcc/powerpc-gekko/4.2.4/crtbegin.o
 .rela.text.__lwp_watchdog_init
                0x00000000        0x0 /Programs/devkitpro/devkitPPC/bin/../lib/gcc/powerpc-gekko/4.2.4/crtbegin.o
 .rela.text.__lwp_wd_tickle
                0x00000000        0x0 /Programs/devkitpro/devkitPPC/bin/../lib/gcc/powerpc-gekko/4.2.4/crtbegin.o
 .rela.text.__lwp_wkspace_init
                0x00000000        0x0 /Programs/devkitpro/devkitPPC/bin/../lib/gcc/powerpc-gekko/4.2.4/crtbegin.o
 .rela.text.__lwp_wkspace_heapused
                0x00000000        0x0 /Programs/devkitpro/devkitPPC/bin/../lib/gcc/powerpc-gekko/4.2.4/crtbegin.o
 .rela.text.__lwp_wkspace_heapfree
                0x00000000        0x0 /Programs/devkitpro/devkitPPC/bin/../lib/gcc/powerpc-gekko/4.2.4/crtbegin.o
 .rela.text.__lwp_objmgr_initinfo
                0x00000000        0x0 /Programs/devkitpro/devkitPPC/bin/../lib/gcc/powerpc-gekko/4.2.4/crtbegin.o
 .rela.text.__irq_init
                0x00000000        0x0 /Programs/devkitpro/devkitPPC/bin/../lib/gcc/powerpc-gekko/4.2.4/crtbegin.o
 .rela.text.__sram_sync
                0x00000000        0x0 /Programs/devkitpro/devkitPPC/bin/../lib/gcc/powerpc-gekko/4.2.4/crtbegin.o
 .rela.text.__locksram
                0x00000000        0x0 /Programs/devkitpro/devkitPPC/bin/../lib/gcc/powerpc-gekko/4.2.4/crtbegin.o
 .rela.text.__sram_init
                0x00000000        0x0 /Programs/devkitpro/devkitPPC/bin/../lib/gcc/powerpc-gekko/4.2.4/crtbegin.o
 .rela.text.SYS_Init
                0x00000000        0x0 /Programs/devkitpro/devkitPPC/bin/../lib/gcc/powerpc-gekko/4.2.4/crtbegin.o
 .rela.text.__unlocksram
                0x00000000        0x0 /Programs/devkitpro/devkitPPC/bin/../lib/gcc/powerpc-gekko/4.2.4/crtbegin.o
 .rela.text.__sram_writecallback
                0x00000000        0x0 /Programs/devkitpro/devkitPPC/bin/../lib/gcc/powerpc-gekko/4.2.4/crtbegin.o
 .rela.text.SYS_CancelAlarm
                0x00000000        0x0 /Programs/devkitpro/devkitPPC/bin/../lib/gcc/powerpc-gekko/4.2.4/crtbegin.o
 .rela.text.SYS_RemoveAlarm
                0x00000000        0x0 /Programs/devkitpro/devkitPPC/bin/../lib/gcc/powerpc-gekko/4.2.4/crtbegin.o
 .rela.text.SYS_SetAlarm
                0x00000000        0x0 /Programs/devkitpro/devkitPPC/bin/../lib/gcc/powerpc-gekko/4.2.4/crtbegin.o
 .rela.text.__sys_alarmhandler
                0x00000000        0x0 /Programs/devkitpro/devkitPPC/bin/../lib/gcc/powerpc-gekko/4.2.4/crtbegin.o
 .rela.text.SYS_SetPeriodicAlarm
                0x00000000        0x0 /Programs/devkitpro/devkitPPC/bin/../lib/gcc/powerpc-gekko/4.2.4/crtbegin.o
 .rela.text.__lwp_cond_init
                0x00000000        0x0 /Programs/devkitpro/devkitPPC/bin/../lib/gcc/powerpc-gekko/4.2.4/crtbegin.o
 .rela.text.LWP_CondDestroy
                0x00000000        0x0 /Programs/devkitpro/devkitPPC/bin/../lib/gcc/powerpc-gekko/4.2.4/crtbegin.o
 .rela.text.LWP_CondInit
                0x00000000        0x0 /Programs/devkitpro/devkitPPC/bin/../lib/gcc/powerpc-gekko/4.2.4/crtbegin.o
 .rela.text.__lwp_cond_signalsupp
                0x00000000        0x0 /Programs/devkitpro/devkitPPC/bin/../lib/gcc/powerpc-gekko/4.2.4/crtbegin.o
 .rela.text.__lwp_cond_waitsupp
                0x00000000        0x0 /Programs/devkitpro/devkitPPC/bin/../lib/gcc/powerpc-gekko/4.2.4/crtbegin.o
 .rela.text.c_decrementer_handler
                0x00000000        0x0 /Programs/devkitpro/devkitPPC/bin/../lib/gcc/powerpc-gekko/4.2.4/crtbegin.o
 .rela.text.__lwp_mqbox_init
                0x00000000        0x0 /Programs/devkitpro/devkitPPC/bin/../lib/gcc/powerpc-gekko/4.2.4/crtbegin.o
 .rela.text.MQ_Close
                0x00000000        0x0 /Programs/devkitpro/devkitPPC/bin/../lib/gcc/powerpc-gekko/4.2.4/crtbegin.o
 .rela.text.MQ_Init
                0x00000000        0x0 /Programs/devkitpro/devkitPPC/bin/../lib/gcc/powerpc-gekko/4.2.4/crtbegin.o
 .rela.text.MQ_Jam
                0x00000000        0x0 /Programs/devkitpro/devkitPPC/bin/../lib/gcc/powerpc-gekko/4.2.4/crtbegin.o
 .rela.text.MQ_Receive
                0x00000000        0x0 /Programs/devkitpro/devkitPPC/bin/../lib/gcc/powerpc-gekko/4.2.4/crtbegin.o
 .rela.text.MQ_Send
                0x00000000        0x0 /Programs/devkitpro/devkitPPC/bin/../lib/gcc/powerpc-gekko/4.2.4/crtbegin.o
 .rela.text.__ios_ioctlvformat_parse
                0x00000000        0x0 /Programs/devkitpro/devkitPPC/bin/../lib/gcc/powerpc-gekko/4.2.4/crtbegin.o
 .rela.text.__ioctlvfmtCB
                0x00000000        0x0 /Programs/devkitpro/devkitPPC/bin/../lib/gcc/powerpc-gekko/4.2.4/crtbegin.o
 .rela.text.IOS_IoctlvFormatAsync
                0x00000000        0x0 /Programs/devkitpro/devkitPPC/bin/../lib/gcc/powerpc-gekko/4.2.4/crtbegin.o
 .rela.text.IOS_IoctlvFormat
                0x00000000        0x0 /Programs/devkitpro/devkitPPC/bin/../lib/gcc/powerpc-gekko/4.2.4/crtbegin.o
 .rela.text.nanosleep
                0x00000000        0x0 /Programs/devkitpro/devkitPPC/bin/../lib/gcc/powerpc-gekko/4.2.4/crtbegin.o
 .rela.text.__libc_init
                0x00000000        0x0 /Programs/devkitpro/devkitPPC/bin/../lib/gcc/powerpc-gekko/4.2.4/crtbegin.o
 .rela.text.__libc_wrapup
                0x00000000        0x0 /Programs/devkitpro/devkitPPC/bin/../lib/gcc/powerpc-gekko/4.2.4/crtbegin.o
 .rela.text.__libc_delete_hook
                0x00000000        0x0 /Programs/devkitpro/devkitPPC/bin/../lib/gcc/powerpc-gekko/4.2.4/crtbegin.o
 .rela.text.__CheckARGV
                0x00000000        0x0 /Programs/devkitpro/devkitPPC/bin/../lib/gcc/powerpc-gekko/4.2.4/crtbegin.o
 .rela.text.__lwp_priority_init
                0x00000000        0x0 /Programs/devkitpro/devkitPPC/bin/../lib/gcc/powerpc-gekko/4.2.4/crtbegin.o
 .rela.text.__lwp_threadqueue_extractpriority
                0x00000000        0x0 /Programs/devkitpro/devkitPPC/bin/../lib/gcc/powerpc-gekko/4.2.4/crtbegin.o
 .rela.text.__lwp_threadqueue_extractfifo
                0x00000000        0x0 /Programs/devkitpro/devkitPPC/bin/../lib/gcc/powerpc-gekko/4.2.4/crtbegin.o
 .rela.text.__lwp_threadqueue_dequeuepriority
                0x00000000        0x0 /Programs/devkitpro/devkitPPC/bin/../lib/gcc/powerpc-gekko/4.2.4/crtbegin.o
 .rela.text.__lwp_threadqueue_enqueuepriority
                0x00000000        0x0 /Programs/devkitpro/devkitPPC/bin/../lib/gcc/powerpc-gekko/4.2.4/crtbegin.o
 .rela.text.__lwp_threadqueue_dequeuefifo
                0x00000000        0x0 /Programs/devkitpro/devkitPPC/bin/../lib/gcc/powerpc-gekko/4.2.4/crtbegin.o
 .rela.text.__lwp_threadqueue_enqueuefifo
                0x00000000        0x0 /Programs/devkitpro/devkitPPC/bin/../lib/gcc/powerpc-gekko/4.2.4/crtbegin.o
 .rela.text.__lwp_threadqueue_enqueue
                0x00000000        0x0 /Programs/devkitpro/devkitPPC/bin/../lib/gcc/powerpc-gekko/4.2.4/crtbegin.o
 .rela.text.__lwpmq_close
                0x00000000        0x0 /Programs/devkitpro/devkitPPC/bin/../lib/gcc/powerpc-gekko/4.2.4/crtbegin.o
 .rela.text.__lwpmq_initialize
                0x00000000        0x0 /Programs/devkitpro/devkitPPC/bin/../lib/gcc/powerpc-gekko/4.2.4/crtbegin.o
 .rela.text.__exception_sethandler
                0x00000000        0x0 /Programs/devkitpro/devkitPPC/bin/../lib/gcc/powerpc-gekko/4.2.4/crtbegin.o
 .rela.text.__exception_init
                0x00000000        0x0 /Programs/devkitpro/devkitPPC/bin/../lib/gcc/powerpc-gekko/4.2.4/crtbegin.o
 .rela.text.__systemcall_init
                0x00000000        0x0 /Programs/devkitpro/devkitPPC/bin/../lib/gcc/powerpc-gekko/4.2.4/crtbegin.o
 .rela.text.__lwp_sema_init
                0x00000000        0x0 /Programs/devkitpro/devkitPPC/bin/../lib/gcc/powerpc-gekko/4.2.4/crtbegin.o
 .rela.text.LWP_SemInit
                0x00000000        0x0 /Programs/devkitpro/devkitPPC/bin/../lib/gcc/powerpc-gekko/4.2.4/crtbegin.o
 .rela.text.LWP_SemDestroy
                0x00000000        0x0 /Programs/devkitpro/devkitPPC/bin/../lib/gcc/powerpc-gekko/4.2.4/crtbegin.o
 .rela.text.LWP_SemPost
                0x00000000        0x0 /Programs/devkitpro/devkitPPC/bin/../lib/gcc/powerpc-gekko/4.2.4/crtbegin.o
 .rela.text.LWP_SemWait
                0x00000000        0x0 /Programs/devkitpro/devkitPPC/bin/../lib/gcc/powerpc-gekko/4.2.4/crtbegin.o
 .rela.text.LWP_MutexInit
                0x00000000        0x0 /Programs/devkitpro/devkitPPC/bin/../lib/gcc/powerpc-gekko/4.2.4/crtbegin.o
 .rela.text.__lwp_mutex_init
                0x00000000        0x0 /Programs/devkitpro/devkitPPC/bin/../lib/gcc/powerpc-gekko/4.2.4/crtbegin.o
 .rela.text.LWP_MutexDestroy
                0x00000000        0x0 /Programs/devkitpro/devkitPPC/bin/../lib/gcc/powerpc-gekko/4.2.4/crtbegin.o
 .rela.text.__lwp_mutex_locksupp
                0x00000000        0x0 /Programs/devkitpro/devkitPPC/bin/../lib/gcc/powerpc-gekko/4.2.4/crtbegin.o
 .rela.text.LWP_MutexUnlock
                0x00000000        0x0 /Programs/devkitpro/devkitPPC/bin/../lib/gcc/powerpc-gekko/4.2.4/crtbegin.o
 .rela.text.kprintf
                0x00000000        0x0 /Programs/devkitpro/devkitPPC/bin/../lib/gcc/powerpc-gekko/4.2.4/crtbegin.o

.rel.fini
 *(.rel.fini)

.rela.fini
 *(.rela.fini)

.rel.rodata
 *(.rel.rodata .rel.rodata.* .rel.gnu.linkonce.r.*)

.rela.rodata
 *(.rela.rodata .rela.rodata.* .rela.gnu.linkonce.r.*)

.rel.data
 *(.rel.data .rel.data.* .rel.gnu.linkonce.d.*)

.rela.data
 *(.rela.data .rela.data.* .rela.gnu.linkonce.d.*)

.rel.tdata
 *(.rel.tdata .rel.tdata.* .rel.gnu.linkonce.td.*)

.rela.tdata
 *(.rela.tdata .rela.tdata.* .rela.gnu.linkonce.td.*)

.rel.tbss
 *(.rel.tbss .rel.tbss.* .rel.gnu.linkonce.tb.*)

.rela.tbss
 *(.rela.tbss .rela.tbss.* .rela.gnu.linkonce.tb.*)

.rel.ctors
 *(.rel.ctors)

.rela.ctors
 *(.rela.ctors)

.rel.dtors
 *(.rel.dtors)

.rela.dtors
 *(.rela.dtors)

.rel.got
 *(.rel.got)

.rela.got
 *(.rela.got)

.rela.got1
 *(.rela.got1)

.rela.got2      0x80004208        0x0
 *(.rela.got2)
 .rela.got2     0x00000000        0x0 /Programs/devkitpro/devkitPPC/bin/../lib/gcc/powerpc-gekko/4.2.4/crtbegin.o

.rel.sdata
 *(.rel.sdata .rel.sdata.* .rel.gnu.linkonce.s.*)

.rela.sdata
 *(.rela.sdata .rela.sdata.* .rela.gnu.linkonce.s.*)

.rel.sbss
 *(.rel.sbss .rel.sbss.* .rel.gnu.linkonce.sb.*)

.rela.sbss
 *(.rela.sbss .rela.sbss.* .rel.gnu.linkonce.sb.*)

.rel.sdata2
 *(.rel.sdata2 .rel.sdata2.* .rel.gnu.linkonce.s2.*)

.rela.sdata2    0x80004208        0x0
 *(.rela.sdata2 .rela.sdata2.* .rela.gnu.linkonce.s2.*)
 .rela.sdata2.__sys_inIPL
                0x00000000        0x0 /Programs/devkitpro/devkitPPC/bin/../lib/gcc/powerpc-gekko/4.2.4/crtbegin.o

.rel.sbss2
 *(.rel.sbss2 .rel.sbss2.* .rel.gnu.linkonce.sb2.*)

.rela.sbss2
 *(.rela.sbss2 .rela.sbss2.* .rela.gnu.linkonce.sb2.*)

.rel.bss
 *(.rel.bss .rel.bss.* .rel.gnu.linkonce.b.*)

.rela.bss
 *(.rela.bss .rela.bss.* .rela.gnu.linkonce.b.*)

.rel.plt
 *(.rel.plt)

.rela.plt
 *(.rela.plt)

.text           0x80004220    0x33040
 *(.text)
 .text          0x80004220      0x140 /Programs/devkitpro/devkitPPC/bin/../lib/gcc/powerpc-gekko/4.2.4/crtbegin.o
 .text          0x80004360       0x48 /Programs/devkitpro/devkitPPC/bin/../lib/gcc/powerpc-gekko/4.2.4/../../../../powerpc-gekko/lib/crtmain.o
                0x80004364                __crtmain
 .text          0x800043a8      0xe44 /Programs/devkitpro/libogc/lib/wii/libisfs.a(isfs.o)
                0x80004628                ISFS_Unmount
                0x80004530                ISFS_SU
                0x800050fc                ISFS_Mount
 *fill*         0x800051ec       0x14 00000000
 .text          0x80005200      0x4ec /Programs/devkitpro/libogc/lib/wii/libogc.a(lwp_handler.o)
                0x80005340                _cpu_context_restore_fp
                0x80005600                _cpu_context_save
                0x80005200                _cpu_context_save_fp
                0x80005480                _cpu_context_switch
                0x80005680                _cpu_context_restore
 .text          0x800056ec      0x5c4 /Programs/devkitpro/libogc/lib/wii/libogc.a(system_asm.o)
                0x80005784                __configMEM1_48Mb
                0x80005c10                __reset
                0x800056ec                __realmode
                0x80005af4                __CacheInit
                0x800058e4                __configMEM2_64Mb
                0x80005b58                __SystemInit
                0x80005a40                __configMEM2_128Mb
                0x80005704                __configMEM1_24Mb
                0x80005abc                __PSInit
                0x80005804                __configMEM2_56Mb
                0x80005960                __configMEM2_112Mb
                0x80005bdc                __flush_cache
                0x80005c80                SYS_SwitchFiber
 .text          0x80005cb0      0x1b0 /Programs/devkitpro/libogc/lib/wii/libogc.a(irq_handler.o)
                0x80005cb0                irq_exceptionhandler
 .text          0x80005e60      0x4d8 /Programs/devkitpro/libogc/lib/wii/libogc.a(cache_asm.o)
                0x8000613c                L2Disable
                0x80005ec4                DCBlockZero
                0x80005f7c                DCFlushRangeNoSync
                0x800060d0                ICBlockInvalidate
                0x80005e60                DCFlashInvalidate
                0x80005ecc                DCBlockStore
                0x80005fdc                DCZeroRange
                0x800062f0                LCLoadBlocks
                0x80005ebc                DCTouchLoad
                0x800062b0                LCAllocTags
                0x80006098                ICDisable
                0x80006084                ICEnable
                0x80006154                L2GlobalInvalidate
                0x80006314                LCStoreBlocks
                0x80006074                ICFlashInvalidate
                0x8000600c                DCTouchRange
                0x80005fac                DCStoreRangeNoSync
                0x800060ac                ICFreeze
                0x80005e84                DCDisable
                0x80005ed4                DCBlockFlush
                0x80005e70                DCEnable
                0x80006128                L2Enable
                0x800061ac                __LCEnable
                0x80005ee4                DCInvalidateRange
                0x8000629c                LCAllocOneTag
                0x80005eac                DCUnfreeze
                0x8000603c                ICInvalidateRange
                0x80005f14                DCFlushRange
                0x800060d8                ICSync
                0x80005edc                DCBlockInvalidate
                0x80005e98                DCFreeze
                0x800060e0                L2Init
                0x800060c0                ICUnfreeze
                0x80005f48                DCStoreRange
                0x80006274                LCDisable
 .text          0x80006338      0x1b0 /Programs/devkitpro/libogc/lib/wii/libogc.a(decrementer_handler.o)
                0x80006338                dec_exceptionhandler
 .text          0x800064e8      0x34c /Programs/devkitpro/libogc/lib/wii/libogc.a(exception_handler.o)
                0x800064e8                exceptionhandler_start
                0x8000659c                default_exceptionhandler
                0x80006830                systemcallhandler_end
                0x80006814                systemcallhandler_start
                0x80006598                exceptionhandler_end
                0x80006564                exceptionhandler_patch
                0x800066dc                fpu_exceptionhandler
 .text          0x80006834       0x34 /Programs/devkitpro/devkitPPC/bin/../lib/gcc/powerpc-gekko/4.2.4/../../../../powerpc-gekko/lib/libm.a(lib_a-s_atan2.o)
                0x80006834                atan2
 .text          0x80006868      0x284 /Programs/devkitpro/devkitPPC/bin/../lib/gcc/powerpc-gekko/4.2.4/../../../../powerpc-gekko/lib/libm.a(lib_a-s_atangent.o)
                0x80006868                atangent
 .text          0x80006aec       0x24 /Programs/devkitpro/devkitPPC/bin/../lib/gcc/powerpc-gekko/4.2.4/../../../../powerpc-gekko/lib/libm.a(lib_a-s_cos.o)
                0x80006aec                cos
 .text          0x80006b10       0xb4 /Programs/devkitpro/devkitPPC/bin/../lib/gcc/powerpc-gekko/4.2.4/../../../../powerpc-gekko/lib/libm.a(lib_a-s_fabs.o)
                0x80006b10                fabs
 .text          0x80006bc4       0xb4 /Programs/devkitpro/devkitPPC/bin/../lib/gcc/powerpc-gekko/4.2.4/../../../../powerpc-gekko/lib/libm.a(lib_a-s_frexp.o)
                0x80006bc4                frexp
 .text          0x80006c78       0x50 /Programs/devkitpro/devkitPPC/bin/../lib/gcc/powerpc-gekko/4.2.4/../../../../powerpc-gekko/lib/libm.a(lib_a-s_numtest.o)
                0x80006c78                numtest
 .text          0x80006cc8       0x24 /Programs/devkitpro/devkitPPC/bin/../lib/gcc/powerpc-gekko/4.2.4/../../../../powerpc-gekko/lib/libm.a(lib_a-s_sin.o)
                0x80006cc8                sin
 .text          0x80006cec      0x2c4 /Programs/devkitpro/devkitPPC/bin/../lib/gcc/powerpc-gekko/4.2.4/../../../../powerpc-gekko/lib/libm.a(lib_a-s_sine.o)
                0x80006cec                sine
 .text          0x80006fb0      0x184 /Programs/devkitpro/devkitPPC/bin/../lib/gcc/powerpc-gekko/4.2.4/../../../../powerpc-gekko/lib/libm.a(lib_a-s_sqrt.o)
                0x80006fb0                sqrt
 .text          0x80007134       0xc8 /Programs/devkitpro/devkitPPC/bin/../lib/gcc/powerpc-gekko/4.2.4/../../../../powerpc-gekko/lib/libm.a(lib_a-sf_atan.o)
                0x80007134                atanf
 .text          0x800071fc       0x38 /Programs/devkitpro/devkitPPC/bin/../lib/gcc/powerpc-gekko/4.2.4/../../../../powerpc-gekko/lib/libm.a(lib_a-sf_atan2.o)
                0x800071fc                atan2f
 .text          0x80007234      0x250 /Programs/devkitpro/devkitPPC/bin/../lib/gcc/powerpc-gekko/4.2.4/../../../../powerpc-gekko/lib/libm.a(lib_a-sf_atangent.o)
                0x80007234                atangentf
 .text          0x80007484       0x24 /Programs/devkitpro/devkitPPC/bin/../lib/gcc/powerpc-gekko/4.2.4/../../../../powerpc-gekko/lib/libm.a(lib_a-sf_cos.o)
                0x80007484                cosf
 .text          0x800074a8       0xb4 /Programs/devkitpro/devkitPPC/bin/../lib/gcc/powerpc-gekko/4.2.4/../../../../powerpc-gekko/lib/libm.a(lib_a-sf_fabs.o)
                0x800074a8                fabsf
 .text          0x8000755c       0xa8 /Programs/devkitpro/devkitPPC/bin/../lib/gcc/powerpc-gekko/4.2.4/../../../../powerpc-gekko/lib/libm.a(lib_a-sf_fpclassify.o)
                0x8000755c                __fpclassifyf
 .text          0x80007604       0x90 /Programs/devkitpro/devkitPPC/bin/../lib/gcc/powerpc-gekko/4.2.4/../../../../powerpc-gekko/lib/libm.a(lib_a-sf_frexp.o)
                0x80007604                frexpf
 .text          0x80007694       0x24 /Programs/devkitpro/devkitPPC/bin/../lib/gcc/powerpc-gekko/4.2.4/../../../../powerpc-gekko/lib/libm.a(lib_a-sf_isinff.o)
                0x80007694                __isinff
 .text          0x800076b8       0x28 /Programs/devkitpro/devkitPPC/bin/../lib/gcc/powerpc-gekko/4.2.4/../../../../powerpc-gekko/lib/libm.a(lib_a-sf_isnanf.o)
                0x800076b8                __isnanf
 .text          0x800076e0       0x48 /Programs/devkitpro/devkitPPC/bin/../lib/gcc/powerpc-gekko/4.2.4/../../../../powerpc-gekko/lib/libm.a(lib_a-sf_numtest.o)
                0x800076e0                numtestf
 .text          0x80007728       0x24 /Programs/devkitpro/devkitPPC/bin/../lib/gcc/powerpc-gekko/4.2.4/../../../../powerpc-gekko/lib/libm.a(lib_a-sf_sin.o)
                0x80007728                sinf
 .text          0x8000774c      0x2b8 /Programs/devkitpro/devkitPPC/bin/../lib/gcc/powerpc-gekko/4.2.4/../../../../powerpc-gekko/lib/libm.a(lib_a-sf_sine.o)
                0x8000774c                sinef
 .text          0x80007a04      0x190 /Programs/devkitpro/devkitPPC/bin/../lib/gcc/powerpc-gekko/4.2.4/../../../../powerpc-gekko/lib/libm.a(lib_a-sf_sqrt.o)
                0x80007a04                sqrtf
 .text          0x80007b94       0x1c /Programs/devkitpro/devkitPPC/bin/../lib/gcc/powerpc-gekko/4.2.4/../../../../powerpc-gekko/lib/libm.a(lib_a-s_ispos.o)
                0x80007b94                ispos
 .text          0x80007bb0      0x154 /Programs/devkitpro/devkitPPC/bin/../lib/gcc/powerpc-gekko/4.2.4/../../../../powerpc-gekko/lib/libm.a(lib_a-s_ldexp.o)
                0x80007bb0                ldexp
 .text          0x80007d04       0x1c /Programs/devkitpro/devkitPPC/bin/../lib/gcc/powerpc-gekko/4.2.4/../../../../powerpc-gekko/lib/libm.a(lib_a-sf_ispos.o)
                0x80007d04                isposf
 .text          0x80007d20      0x14c /Programs/devkitpro/devkitPPC/bin/../lib/gcc/powerpc-gekko/4.2.4/../../../../powerpc-gekko/lib/libm.a(lib_a-sf_ldexp.o)
                0x80007d20                ldexpf
 .text          0x80007e6c      0x408 /Programs/devkitpro/devkitPPC/bin/../lib/gcc/powerpc-gekko/4.2.4/libgcc.a(_udivdi3.o)
                0x80007e6c                __udivdi3
 .text          0x80008274       0x28 /Programs/devkitpro/devkitPPC/bin/../lib/gcc/powerpc-gekko/4.2.4/../../../../powerpc-gekko/lib/libsysbase.a(abort.o)
                0x80008274                abort
 .text          0x8000829c      0x2c4 /Programs/devkitpro/devkitPPC/bin/../lib/gcc/powerpc-gekko/4.2.4/../../../../powerpc-gekko/lib/libsysbase.a(iosupport.o)
                0x80008510                RemoveDevice
                0x8000829c                setDefaultDevice
                0x800082b4                AddDevice
                0x800084cc                GetDeviceOpTab
                0x800083dc                FindDevice
 .text          0x80008560       0x28 /Programs/devkitpro/devkitPPC/bin/../lib/gcc/powerpc-gekko/4.2.4/../../../../powerpc-gekko/lib/libsysbase.a(_exit.o)
                0x80008560                _exit
 .text          0x80008588       0x9c /Programs/devkitpro/devkitPPC/bin/../lib/gcc/powerpc-gekko/4.2.4/../../../../powerpc-gekko/lib/libsysbase.a(build_argv.o)
                0x80008588                build_argv
 .text          0x80008624      0x168 /Programs/devkitpro/devkitPPC/bin/../lib/gcc/powerpc-gekko/4.2.4/../../../../powerpc-gekko/lib/libsysbase.a(syscall_support.o)
                0x80008758                __malloc_unlock
                0x800086a4                __libc_lock_release
                0x80008624                __libc_lock_init
                0x80008724                __malloc_lock
                0x80008664                __libc_lock_close
                0x800086e4                __libc_lock_acquire
 .text          0x8000878c       0x34 /Programs/devkitpro/devkitPPC/bin/../lib/gcc/powerpc-gekko/4.2.4/../../../../powerpc-gekko/lib/libc.a(lib_a-calloc.o)
                0x8000878c                calloc
 .text          0x800087c0       0xd0 /Programs/devkitpro/devkitPPC/bin/../lib/gcc/powerpc-gekko/4.2.4/../../../../powerpc-gekko/lib/libc.a(lib_a-callocr.o)
                0x800087c0                _calloc_r
 .text          0x80008890        0xc /Programs/devkitpro/devkitPPC/bin/../lib/gcc/powerpc-gekko/4.2.4/../../../../powerpc-gekko/lib/libc.a(lib_a-errno.o)
                0x80008890                __errno
 .text          0x8000889c       0x40 /Programs/devkitpro/devkitPPC/bin/../lib/gcc/powerpc-gekko/4.2.4/../../../../powerpc-gekko/lib/libc.a(lib_a-exit.o)
                0x8000889c                exit
 .text          0x800088dc      0x188 /Programs/devkitpro/devkitPPC/bin/../lib/gcc/powerpc-gekko/4.2.4/../../../../powerpc-gekko/lib/libc.a(lib_a-fclose.o)
                0x800088dc                _fclose_r
                0x80008a54                fclose
 .text          0x80008a64      0x350 /Programs/devkitpro/devkitPPC/bin/../lib/gcc/powerpc-gekko/4.2.4/../../../../powerpc-gekko/lib/libc.a(lib_a-fflush.o)
                0x80008d64                fflush
                0x80008a64                _fflush_r
 .text          0x80008db4      0x4ac /Programs/devkitpro/devkitPPC/bin/../lib/gcc/powerpc-gekko/4.2.4/../../../../powerpc-gekko/lib/libc.a(lib_a-findfp.o)
                0x80008fa0                __sinit
                0x800090c0                __sfmoreglue
                0x80008ddc                _cleanup
                0x80008db4                _cleanup_r
                0x8000908c                __fp_lock_all
                0x8000903c                __sfp_lock_acquire
                0x80009138                __sfp
                0x80008e48                __sinit_lock_release
                0x80008e9c                __fp_unlock_all
                0x80008e70                __sfp_lock_release
                0x80008f54                __sinit_lock_acquire
 .text          0x80009260      0x154 /Programs/devkitpro/devkitPPC/bin/../lib/gcc/powerpc-gekko/4.2.4/../../../../powerpc-gekko/lib/libc.a(lib_a-fopen.o)
                0x8000939c                fopen
                0x80009260                _fopen_r
 .text          0x800093b4      0x110 /Programs/devkitpro/devkitPPC/bin/../lib/gcc/powerpc-gekko/4.2.4/../../../../powerpc-gekko/lib/libc.a(lib_a-fprintf.o)
                0x800093b4                fprintf
                0x80009448                _fprintf_r
 .text          0x800094c4      0x3c0 /Programs/devkitpro/devkitPPC/bin/../lib/gcc/powerpc-gekko/4.2.4/../../../../powerpc-gekko/lib/libc.a(lib_a-fread.o)
                0x8000985c                fread
                0x800094c4                _fread_r
 .text          0x80009884      0x3f8 /Programs/devkitpro/devkitPPC/bin/../lib/gcc/powerpc-gekko/4.2.4/../../../../powerpc-gekko/lib/libc.a(lib_a-freer.o)
                0x800099a0                _free_r
                0x80009884                _malloc_trim_r
 .text          0x80009c7c      0x704 /Programs/devkitpro/devkitPPC/bin/../lib/gcc/powerpc-gekko/4.2.4/../../../../powerpc-gekko/lib/libc.a(lib_a-fseek.o)
                0x8000a360                fseek
                0x80009c7c                _fseek_r
 .text          0x8000a380      0x20c /Programs/devkitpro/devkitPPC/bin/../lib/gcc/powerpc-gekko/4.2.4/../../../../powerpc-gekko/lib/libc.a(lib_a-fwalk.o)
                0x8000a48c                _fwalk
                0x8000a380                _fwalk_reent
 .text          0x8000a58c      0x17c /Programs/devkitpro/devkitPPC/bin/../lib/gcc/powerpc-gekko/4.2.4/../../../../powerpc-gekko/lib/libc.a(lib_a-fwrite.o)
                0x8000a58c                _fwrite_r
                0x8000a6e0                fwrite
 .text          0x8000a708      0x1bc /Programs/devkitpro/devkitPPC/bin/../lib/gcc/powerpc-gekko/4.2.4/../../../../powerpc-gekko/lib/libc.a(lib_a-makebuf.o)
                0x8000a708                __smakebuf_r
 .text          0x8000a8c4       0x34 /Programs/devkitpro/devkitPPC/bin/../lib/gcc/powerpc-gekko/4.2.4/../../../../powerpc-gekko/lib/libc.a(lib_a-malign.o)
                0x8000a8c4                memalign
 .text          0x8000a8f8      0x1b0 /Programs/devkitpro/devkitPPC/bin/../lib/gcc/powerpc-gekko/4.2.4/../../../../powerpc-gekko/lib/libc.a(lib_a-malignr.o)
                0x8000a8f8                _memalign_r
 .text          0x8000aaa8       0x58 /Programs/devkitpro/devkitPPC/bin/../lib/gcc/powerpc-gekko/4.2.4/../../../../powerpc-gekko/lib/libc.a(lib_a-malloc.o)
                0x8000aad4                malloc
                0x8000aaa8                free
 .text          0x8000ab00      0x86c /Programs/devkitpro/devkitPPC/bin/../lib/gcc/powerpc-gekko/4.2.4/../../../../powerpc-gekko/lib/libc.a(lib_a-mallocr.o)
                0x8000ab00                _malloc_r
 .text          0x8000b36c       0x8c /Programs/devkitpro/devkitPPC/bin/../lib/gcc/powerpc-gekko/4.2.4/../../../../powerpc-gekko/lib/libc.a(lib_a-memcmp.o)
                0x8000b36c                memcmp
 .text          0x8000b3f8       0xc8 /Programs/devkitpro/devkitPPC/bin/../lib/gcc/powerpc-gekko/4.2.4/../../../../powerpc-gekko/lib/libc.a(lib_a-memcpy.o)
                0x8000b3f8                memcpy
 .text          0x8000b4c0      0x104 /Programs/devkitpro/devkitPPC/bin/../lib/gcc/powerpc-gekko/4.2.4/../../../../powerpc-gekko/lib/libc.a(lib_a-memmove.o)
                0x8000b4c0                memmove
 .text          0x8000b5c4       0xac /Programs/devkitpro/devkitPPC/bin/../lib/gcc/powerpc-gekko/4.2.4/../../../../powerpc-gekko/lib/libc.a(lib_a-memset.o)
                0x8000b5c4                memset
 .text          0x8000b670      0x124 /Programs/devkitpro/devkitPPC/bin/../lib/gcc/powerpc-gekko/4.2.4/../../../../powerpc-gekko/lib/libc.a(lib_a-printf.o)
                0x8000b670                printf
                0x8000b708                _printf_r
 .text          0x8000b794       0xa8 /Programs/devkitpro/devkitPPC/bin/../lib/gcc/powerpc-gekko/4.2.4/../../../../powerpc-gekko/lib/libc.a(lib_a-puts.o)
                0x8000b794                _puts_r
                0x8000b82c                puts
 .text          0x8000b83c       0x34 /Programs/devkitpro/devkitPPC/bin/../lib/gcc/powerpc-gekko/4.2.4/../../../../powerpc-gekko/lib/libc.a(lib_a-realloc.o)
                0x8000b83c                realloc
 .text          0x8000b870      0x668 /Programs/devkitpro/devkitPPC/bin/../lib/gcc/powerpc-gekko/4.2.4/../../../../powerpc-gekko/lib/libc.a(lib_a-reallocr.o)
                0x8000b870                _realloc_r
 .text          0x8000bed8      0x248 /Programs/devkitpro/devkitPPC/bin/../lib/gcc/powerpc-gekko/4.2.4/../../../../powerpc-gekko/lib/libc.a(lib_a-reent.o)
                0x8000bf98                cleanup_glue
                0x8000bfe8                _reclaim_reent
                0x8000bed8                _wrapup_reent
 .text          0x8000c120      0x248 /Programs/devkitpro/devkitPPC/bin/../lib/gcc/powerpc-gekko/4.2.4/../../../../powerpc-gekko/lib/libc.a(lib_a-refill.o)
                0x8000c120                __srefill_r
 .text          0x8000c368      0x2cc /Programs/devkitpro/devkitPPC/bin/../lib/gcc/powerpc-gekko/4.2.4/../../../../powerpc-gekko/lib/libc.a(lib_a-setvbuf.o)
                0x8000c368                setvbuf
 .text          0x8000c634      0x230 /Programs/devkitpro/devkitPPC/bin/../lib/gcc/powerpc-gekko/4.2.4/../../../../powerpc-gekko/lib/libc.a(lib_a-snprintf.o)
                0x8000c634                snprintf
                0x8000c74c                _snprintf_r
 .text          0x8000c864      0x188 /Programs/devkitpro/devkitPPC/bin/../lib/gcc/powerpc-gekko/4.2.4/../../../../powerpc-gekko/lib/libc.a(lib_a-sprintf.o)
                0x8000c930                _sprintf_r
                0x8000c864                sprintf
 .text          0x8000c9ec      0x184 /Programs/devkitpro/devkitPPC/bin/../lib/gcc/powerpc-gekko/4.2.4/../../../../powerpc-gekko/lib/libc.a(lib_a-stdio.o)
                0x8000ca10                __sseek
                0x8000cb0c                __sread
                0x8000c9ec                __sclose
                0x8000ca80                __swrite
 .text          0x8000cb70       0xf0 /Programs/devkitpro/devkitPPC/bin/../lib/gcc/powerpc-gekko/4.2.4/../../../../powerpc-gekko/lib/libc.a(lib_a-strchr.o)
                0x8000cb70                strchr
 .text          0x8000cc60       0xc0 /Programs/devkitpro/devkitPPC/bin/../lib/gcc/powerpc-gekko/4.2.4/../../../../powerpc-gekko/lib/libc.a(lib_a-strcmp.o)
                0x8000cc60                strcmp
 .text          0x8000cd20       0x74 /Programs/devkitpro/devkitPPC/bin/../lib/gcc/powerpc-gekko/4.2.4/../../../../powerpc-gekko/lib/libc.a(lib_a-strcpy.o)
                0x8000cd20                strcpy
 .text          0x8000cd94       0x2c /Programs/devkitpro/devkitPPC/bin/../lib/gcc/powerpc-gekko/4.2.4/../../../../powerpc-gekko/lib/libc.a(lib_a-strdup.o)
                0x8000cd94                strdup
 .text          0x8000cdc0       0x6c /Programs/devkitpro/devkitPPC/bin/../lib/gcc/powerpc-gekko/4.2.4/../../../../powerpc-gekko/lib/libc.a(lib_a-strdup_r.o)
                0x8000cdc0                _strdup_r
 .text          0x8000ce2c       0x64 /Programs/devkitpro/devkitPPC/bin/../lib/gcc/powerpc-gekko/4.2.4/../../../../powerpc-gekko/lib/libc.a(lib_a-strlen.o)
                0x8000ce2c                strlen
 .text          0x8000ce90       0xc0 /Programs/devkitpro/devkitPPC/bin/../lib/gcc/powerpc-gekko/4.2.4/../../../../powerpc-gekko/lib/libc.a(lib_a-strncasecmp.o)
                0x8000ce90                strncasecmp
 .text          0x8000cf50      0x144 /Programs/devkitpro/devkitPPC/bin/../lib/gcc/powerpc-gekko/4.2.4/../../../../powerpc-gekko/lib/libc.a(lib_a-strncmp.o)
                0x8000cf50                strncmp
 .text          0x8000d094       0xdc /Programs/devkitpro/devkitPPC/bin/../lib/gcc/powerpc-gekko/4.2.4/../../../../powerpc-gekko/lib/libc.a(lib_a-strncpy.o)
                0x8000d094                strncpy
 .text          0x8000d170       0x44 /Programs/devkitpro/devkitPPC/bin/../lib/gcc/powerpc-gekko/4.2.4/../../../../powerpc-gekko/lib/libc.a(lib_a-strnlen.o)
                0x8000d170                strnlen
 .text          0x8000d1b4      0x1ec /Programs/devkitpro/devkitPPC/bin/../lib/gcc/powerpc-gekko/4.2.4/../../../../powerpc-gekko/lib/libc.a(lib_a-strtoul.o)
                0x8000d380                strtoul
                0x8000d1b4                _strtoul_r
 .text          0x8000d3a0      0x288 /Programs/devkitpro/devkitPPC/bin/../lib/gcc/powerpc-gekko/4.2.4/../../../../powerpc-gekko/lib/libc.a(lib_a-strtoull_r.o)
                0x8000d3a0                _strtoull_r
 .text          0x8000d628       0x3c /Programs/devkitpro/devkitPPC/bin/../lib/gcc/powerpc-gekko/4.2.4/../../../../powerpc-gekko/lib/libc.a(lib_a-syswrite.o)
                0x8000d628                write
 .text          0x8000d664     0x2344 /Programs/devkitpro/devkitPPC/bin/../lib/gcc/powerpc-gekko/4.2.4/../../../../powerpc-gekko/lib/libc.a(lib_a-vfprintf.o)
                0x8000d6c4                _vfprintf_r
                0x8000f988                vfprintf
 .text          0x8000f9a8       0xa4 /Programs/devkitpro/devkitPPC/bin/../lib/gcc/powerpc-gekko/4.2.4/../../../../powerpc-gekko/lib/libc.a(lib_a-wcrtomb.o)
                0x8000f9a8                _wcrtomb_r
                0x8000fa2c                wcrtomb
 .text          0x8000fa4c      0x1d8 /Programs/devkitpro/devkitPPC/bin/../lib/gcc/powerpc-gekko/4.2.4/../../../../powerpc-gekko/lib/libc.a(lib_a-wcsrtombs.o)
                0x8000fa4c                _wcsrtombs_r
                0x8000fbfc                wcsrtombs
 .text          0x8000fc24      0x464 /Programs/devkitpro/devkitPPC/bin/../lib/gcc/powerpc-gekko/4.2.4/../../../../powerpc-gekko/lib/libc.a(lib_a-wctomb_r.o)
                0x8000fc24                _wctomb_r
 .text          0x80010088      0x178 /Programs/devkitpro/devkitPPC/bin/../lib/gcc/powerpc-gekko/4.2.4/../../../../powerpc-gekko/lib/libc.a(lib_a-wsetup.o)
                0x80010088                __swsetup_r
 .text          0x80010200      0x1ac /Programs/devkitpro/devkitPPC/bin/../lib/gcc/powerpc-gekko/4.2.4/../../../../powerpc-gekko/lib/libc.a(lib_a-__call_atexit.o)
                0x80010200                __call_exitprocs
 .text          0x800103ac     0x1390 /Programs/devkitpro/devkitPPC/bin/../lib/gcc/powerpc-gekko/4.2.4/../../../../powerpc-gekko/lib/libc.a(lib_a-dtoa.o)
                0x800105e8                _dtoa_r
 .text          0x8001173c       0xa4 /Programs/devkitpro/devkitPPC/bin/../lib/gcc/powerpc-gekko/4.2.4/../../../../powerpc-gekko/lib/libc.a(lib_a-flags.o)
                0x8001173c                __sflags
 .text          0x800117e0      0x504 /Programs/devkitpro/devkitPPC/bin/../lib/gcc/powerpc-gekko/4.2.4/../../../../powerpc-gekko/lib/libc.a(lib_a-fvwrite.o)
                0x800117e0                __sfvwrite_r
 .text          0x80011ce4      0x4c4 /Programs/devkitpro/devkitPPC/bin/../lib/gcc/powerpc-gekko/4.2.4/../../../../powerpc-gekko/lib/libc.a(lib_a-locale.o)
                0x80011d08                _setlocale_r
                0x80011ce4                __locale_charset
                0x80011cf0                _localeconv_r
                0x80012190                setlocale
                0x80011cfc                localeconv
 .text          0x800121a8      0x9a8 /Programs/devkitpro/devkitPPC/bin/../lib/gcc/powerpc-gekko/4.2.4/../../../../powerpc-gekko/lib/libc.a(lib_a-mbtowc_r.o)
                0x800121a8                _mbtowc_r
 .text          0x80012b50       0xf4 /Programs/devkitpro/devkitPPC/bin/../lib/gcc/powerpc-gekko/4.2.4/../../../../powerpc-gekko/lib/libc.a(lib_a-memchr.o)
                0x80012b50                memchr
 .text          0x80012c44     0x1114 /Programs/devkitpro/devkitPPC/bin/../lib/gcc/powerpc-gekko/4.2.4/../../../../powerpc-gekko/lib/libc.a(lib_a-mprec.o)
                0x800130ac                _mprec_log10
                0x80013150                __any_on
                0x800131f0                _Balloc
                0x80012fe8                __ratio
                0x800139b0                __i2b
                0x80012e98                __b2d
                0x80013c30                __s2b
                0x80012d98                __mcmp
                0x80012c68                __hi0bits
                0x80013b04                __pow5mult
                0x80013614                __lshift
                0x8001377c                __multiply
                0x800132c0                __d2b
                0x800130e8                __copybits
                0x80012df8                __ulp
                0x80013468                __mdiff
                0x80012cd4                __lo0bits
                0x800139ec                __multadd
                0x80012c44                _Bfree
 .text          0x80013d58       0x44 /Programs/devkitpro/devkitPPC/bin/../lib/gcc/powerpc-gekko/4.2.4/../../../../powerpc-gekko/lib/libc.a(lib_a-s_isinfd.o)
                0x80013d58                __isinfd
 .text          0x80013d9c       0x38 /Programs/devkitpro/devkitPPC/bin/../lib/gcc/powerpc-gekko/4.2.4/../../../../powerpc-gekko/lib/libc.a(lib_a-s_isnand.o)
                0x80013d9c                __isnand
 .text          0x80013dd4       0xa0 /Programs/devkitpro/devkitPPC/bin/../lib/gcc/powerpc-gekko/4.2.4/../../../../powerpc-gekko/lib/libsysbase.a(close.o)
                0x80013dd4                _close_r
 .text          0x80013e74       0xc8 /Programs/devkitpro/devkitPPC/bin/../lib/gcc/powerpc-gekko/4.2.4/../../../../powerpc-gekko/lib/libsysbase.a(fstat.o)
                0x80013e74                _fstat_r
 .text          0x80013f3c        0x8 /Programs/devkitpro/devkitPPC/bin/../lib/gcc/powerpc-gekko/4.2.4/../../../../powerpc-gekko/lib/libsysbase.a(isatty.o)
                0x80013f3c                isatty
 .text          0x80013f44       0xe8 /Programs/devkitpro/devkitPPC/bin/../lib/gcc/powerpc-gekko/4.2.4/../../../../powerpc-gekko/lib/libsysbase.a(lseek.o)
                0x80013f44                _lseek_r
 .text          0x8001402c      0x14c /Programs/devkitpro/devkitPPC/bin/../lib/gcc/powerpc-gekko/4.2.4/../../../../powerpc-gekko/lib/libsysbase.a(open.o)
                0x8001402c                _open_r
 .text          0x80014178       0xcc /Programs/devkitpro/devkitPPC/bin/../lib/gcc/powerpc-gekko/4.2.4/../../../../powerpc-gekko/lib/libsysbase.a(read.o)
                0x80014178                _read_r
 .text          0x80014244       0x50 /Programs/devkitpro/devkitPPC/bin/../lib/gcc/powerpc-gekko/4.2.4/../../../../powerpc-gekko/lib/libsysbase.a(sbrk.o)
                0x80014244                _sbrk_r
 .text          0x80014294       0xcc /Programs/devkitpro/devkitPPC/bin/../lib/gcc/powerpc-gekko/4.2.4/../../../../powerpc-gekko/lib/libsysbase.a(write.o)
                0x80014294                _write_r
 .text          0x80014360       0x6c /Programs/devkitpro/devkitPPC/bin/../lib/gcc/powerpc-gekko/4.2.4/../../../../powerpc-gekko/lib/libsysbase.a(flock.o)
                0x80014384                __flockfile
                0x80014360                __funlockfile
 .text          0x800143cc      0x120 /Programs/devkitpro/devkitPPC/bin/../lib/gcc/powerpc-gekko/4.2.4/../../../../powerpc-gekko/lib/libsysbase.a(handle_manager.o)
                0x80014490                __release_handle
                0x800143f8                __alloc_handle
                0x800143cc                __get_handle
 .text          0x800144ec      0x450 /Programs/devkitpro/devkitPPC/bin/../lib/gcc/powerpc-gekko/4.2.4/libgcc.a(_umoddi3.o)
                0x800144ec                __umoddi3
 .text          0x8001493c       0x6c /Programs/devkitpro/devkitPPC/bin/../lib/gcc/powerpc-gekko/4.2.4/crtend.o
 *(.text.*)
 .text.clearScreen
                0x800149a8       0x3c main.o
                0x800149a8                clearScreen
 .text.showMii  0x800149e4      0x180 main.o
                0x800149e4                showMii
 .text.init     0x80014b64       0xb8 main.o
                0x80014b64                init
 .text.main     0x80014c1c       0xf4 main.o
                0x80014c1c                main
 .text.loadMii  0x80014d10      0xb3c /Programs/devkitpro/libogc/lib/wii/libmii.a(mii.o)
                0x80014d10                loadMii
 .text.loadMiis
                0x8001584c      0x11c /Programs/devkitpro/libogc/lib/wii/libmii.a(mii.o)
                0x8001584c                loadMiis
 .text.read     0x80015968       0x88 /Programs/devkitpro/libogc/lib/wii/libmii.a(mii.o)
                0x80015968                read
 .text.loadMiis_Wii
                0x800159f0       0x6c /Programs/devkitpro/libogc/lib/wii/libmii.a(mii.o)
                0x800159f0                loadMiis_Wii
 .text.__wpad_assign_slot
                0x80015a5c      0x24c /Programs/devkitpro/libogc/lib/wii/libwiiuse.a(wpad.o)
                0x80015a5c                __wpad_assign_slot
 .text.__wpad_disconnectCB
                0x80015ca8      0x100 /Programs/devkitpro/libogc/lib/wii/libwiiuse.a(wpad.o)
                0x80015ca8                __wpad_disconnectCB
 .text.WPAD_ButtonsDown
                0x80015da8       0x28 /Programs/devkitpro/libogc/lib/wii/libwiiuse.a(wpad.o)
                0x80015da8                WPAD_ButtonsDown
 .text.__wpad_disconnect
                0x80015dd0       0x58 /Programs/devkitpro/libogc/lib/wii/libwiiuse.a(wpad.o)
 .text.WPAD_Shutdown
                0x80015e28      0x100 /Programs/devkitpro/libogc/lib/wii/libwiiuse.a(wpad.o)
                0x80015e28                WPAD_Shutdown
 .text.__wpad_onreset
                0x80015f28       0x2c /Programs/devkitpro/libogc/lib/wii/libwiiuse.a(wpad.o)
 .text.__wpad_timeouthandler
                0x80015f54       0xb8 /Programs/devkitpro/libogc/lib/wii/libwiiuse.a(wpad.o)
 .text.__wpad_def_powcb
                0x8001600c       0x20 /Programs/devkitpro/libogc/lib/wii/libwiiuse.a(wpad.o)
 .text.__wpad_setfmt
                0x8001602c      0x110 /Programs/devkitpro/libogc/lib/wii/libwiiuse.a(wpad.o)
 .text.WPAD_ReadEvent
                0x8001613c      0x5a4 /Programs/devkitpro/libogc/lib/wii/libwiiuse.a(wpad.o)
                0x8001613c                WPAD_ReadEvent
 .text.WPAD_ReadPending
                0x800166e0      0x16c /Programs/devkitpro/libogc/lib/wii/libwiiuse.a(wpad.o)
                0x800166e0                WPAD_ReadPending
 .text.WPAD_ScanPads
                0x8001684c        0xc /Programs/devkitpro/libogc/lib/wii/libwiiuse.a(wpad.o)
                0x8001684c                WPAD_ScanPads
 .text.WPAD_Init
                0x80016858      0x20c /Programs/devkitpro/libogc/lib/wii/libwiiuse.a(wpad.o)
                0x80016858                WPAD_Init
 .text.__initcore_finished
                0x80016a64       0x40 /Programs/devkitpro/libogc/lib/wii/libwiiuse.a(wpad.o)
 .text.__readlinkkey_finished
                0x80016aa4       0x38 /Programs/devkitpro/libogc/lib/wii/libwiiuse.a(wpad.o)
 .text.__wpad_patch_finished
                0x80016adc       0x2c /Programs/devkitpro/libogc/lib/wii/libwiiuse.a(wpad.o)
 .text.__wpad_init_finished
                0x80016b08      0x1d4 /Programs/devkitpro/libogc/lib/wii/libwiiuse.a(wpad.o)
 .text.__wpad_eventCB
                0x80016cdc      0x998 /Programs/devkitpro/libogc/lib/wii/libwiiuse.a(wpad.o)
 .text.calculate_gforce
                0x80017674       0xfc /Programs/devkitpro/libogc/lib/wii/libwiiuse.a(dynamics.o)
                0x80017674                calculate_gforce
 .text.calc_balanceboard_state
                0x80017770      0x380 /Programs/devkitpro/libogc/lib/wii/libwiiuse.a(dynamics.o)
                0x80017770                calc_balanceboard_state
 .text.apply_smoothing
                0x80017af0      0x184 /Programs/devkitpro/libogc/lib/wii/libwiiuse.a(dynamics.o)
                0x80017af0                apply_smoothing
 .text.calc_joystick_state
                0x80017c74      0x274 /Programs/devkitpro/libogc/lib/wii/libwiiuse.a(dynamics.o)
                0x80017c74                calc_joystick_state
 .text.calculate_orientation
                0x80017ee8      0x2ec /Programs/devkitpro/libogc/lib/wii/libwiiuse.a(dynamics.o)
                0x80017ee8                calculate_orientation
 .text.wiiuse_io_write
                0x800181d4       0x44 /Programs/devkitpro/libogc/lib/wii/libwiiuse.a(io_wii.o)
                0x800181d4                wiiuse_io_write
 .text.__wiiuse_disconnected
                0x80018218       0xb0 /Programs/devkitpro/libogc/lib/wii/libwiiuse.a(io_wii.o)
 .text.__wiiuse_sent
                0x800182c8       0xc4 /Programs/devkitpro/libogc/lib/wii/libwiiuse.a(io_wii.o)
 .text.wiiuse_init_cmd_queue
                0x8001838c       0x4c /Programs/devkitpro/libogc/lib/wii/libwiiuse.a(io_wii.o)
                0x8001838c                wiiuse_init_cmd_queue
 .text.wiiuse_disconnect
                0x800183d8       0x40 /Programs/devkitpro/libogc/lib/wii/libwiiuse.a(io_wii.o)
                0x800183d8                wiiuse_disconnect
 .text.wiiuse_register
                0x80018418       0xe4 /Programs/devkitpro/libogc/lib/wii/libwiiuse.a(io_wii.o)
                0x80018418                wiiuse_register
 .text.__wiiuse_connected
                0x800184fc       0x9c /Programs/devkitpro/libogc/lib/wii/libwiiuse.a(io_wii.o)
 .text.__wiiuse_receive
                0x80018598       0xc8 /Programs/devkitpro/libogc/lib/wii/libwiiuse.a(io_wii.o)
 .text.__wiiuse_sensorbar_enable
                0x80018660       0x50 /Programs/devkitpro/libogc/lib/wii/libwiiuse.a(io_wii.o)
                0x80018660                __wiiuse_sensorbar_enable
 .text.get_ir_sens
                0x800186b0       0xec /Programs/devkitpro/libogc/lib/wii/libwiiuse.a(ir.o)
 .text.wiiuse_set_ir_position
                0x8001879c       0x80 /Programs/devkitpro/libogc/lib/wii/libwiiuse.a(ir.o)
                0x8001879c                wiiuse_set_ir_position
 .text.wiiuse_set_aspect_ratio
                0x8001881c       0x44 /Programs/devkitpro/libogc/lib/wii/libwiiuse.a(ir.o)
                0x8001881c                wiiuse_set_aspect_ratio
 .text.calculate_basic_ir
                0x80018860       0xf4 /Programs/devkitpro/libogc/lib/wii/libwiiuse.a(ir.o)
                0x80018860                calculate_basic_ir
 .text.calculate_extended_ir
                0x80018954       0x70 /Programs/devkitpro/libogc/lib/wii/libwiiuse.a(ir.o)
                0x80018954                calculate_extended_ir
 .text.calc_yaw
                0x800189c4       0x54 /Programs/devkitpro/libogc/lib/wii/libwiiuse.a(ir.o)
                0x800189c4                calc_yaw
 .text.apply_ir_smoothing
                0x80018a18       0xf4 /Programs/devkitpro/libogc/lib/wii/libwiiuse.a(ir.o)
                0x80018a18                apply_ir_smoothing
 .text.rotate_dots
                0x80018b0c      0x120 /Programs/devkitpro/libogc/lib/wii/libwiiuse.a(ir.o)
 .text.find_sensorbar
                0x80018c2c      0x970 /Programs/devkitpro/libogc/lib/wii/libwiiuse.a(ir.o)
                0x80018c2c                find_sensorbar
 .text.interpret_ir_data
                0x8001959c      0x33c /Programs/devkitpro/libogc/lib/wii/libwiiuse.a(ir.o)
                0x8001959c                interpret_ir_data
 .text.wiiuse_set_ir_sensitivity
                0x800198d8      0x118 /Programs/devkitpro/libogc/lib/wii/libwiiuse.a(ir.o)
                0x800198d8                wiiuse_set_ir_sensitivity
 .text.wiiuse_set_ir_mode
                0x800199f0       0x6c /Programs/devkitpro/libogc/lib/wii/libwiiuse.a(ir.o)
                0x800199f0                wiiuse_set_ir_mode
 .text.wiiuse_set_ir
                0x80019a5c      0x21c /Programs/devkitpro/libogc/lib/wii/libwiiuse.a(ir.o)
                0x80019a5c                wiiuse_set_ir
 .text.wiiuse_set_flags
                0x80019c78       0x20 /Programs/devkitpro/libogc/lib/wii/libwiiuse.a(wiiuse.o)
                0x80019c78                wiiuse_set_flags
 .text.wiiuse_send_next_command
                0x80019c98       0x6c /Programs/devkitpro/libogc/lib/wii/libwiiuse.a(wiiuse.o)
                0x80019c98                wiiuse_send_next_command
 .text.wiiuse_write_data
                0x80019d04      0x184 /Programs/devkitpro/libogc/lib/wii/libwiiuse.a(wiiuse.o)
                0x80019d04                wiiuse_write_data
 .text.wiiuse_init
                0x80019e88      0x164 /Programs/devkitpro/libogc/lib/wii/libwiiuse.a(wiiuse.o)
                0x80019e88                wiiuse_init
 .text.wiiuse_sendcmd
                0x80019fec      0x10c /Programs/devkitpro/libogc/lib/wii/libwiiuse.a(wiiuse.o)
                0x80019fec                wiiuse_sendcmd
 .text.wiiuse_status
                0x8001a0f8       0x5c /Programs/devkitpro/libogc/lib/wii/libwiiuse.a(wiiuse.o)
                0x8001a0f8                wiiuse_status
 .text.wiiuse_motion_sensing
                0x8001a154       0x54 /Programs/devkitpro/libogc/lib/wii/libwiiuse.a(wiiuse.o)
                0x8001a154                wiiuse_motion_sensing
 .text.wiiuse_set_report_type
                0x8001a1a8      0x100 /Programs/devkitpro/libogc/lib/wii/libwiiuse.a(wiiuse.o)
                0x8001a1a8                wiiuse_set_report_type
 .text.wiiuse_set_leds
                0x8001a2a8       0x60 /Programs/devkitpro/libogc/lib/wii/libwiiuse.a(wiiuse.o)
                0x8001a2a8                wiiuse_set_leds
 .text.wiiuse_read_data
                0x8001a308      0x144 /Programs/devkitpro/libogc/lib/wii/libwiiuse.a(wiiuse.o)
                0x8001a308                wiiuse_read_data
 .text.wiiuse_pressed_buttons
                0x8001a44c       0x2c /Programs/devkitpro/libogc/lib/wii/libwiiuse.a(events.o)
                0x8001a44c                wiiuse_pressed_buttons
 .text.handle_expansion
                0x8001a478       0x94 /Programs/devkitpro/libogc/lib/wii/libwiiuse.a(events.o)
 .text.parse_event
                0x8001a50c      0x518 /Programs/devkitpro/libogc/lib/wii/libwiiuse.a(events.o)
                0x8001a50c                parse_event
 .text.guitar_hero_3_event
                0x8001aa24       0x50 /Programs/devkitpro/libogc/lib/wii/libwiiuse.a(guitar_hero_3.o)
                0x8001aa24                guitar_hero_3_event
 .text.guitar_hero_3_disconnected
                0x8001aa74       0x28 /Programs/devkitpro/libogc/lib/wii/libwiiuse.a(guitar_hero_3.o)
                0x8001aa74                guitar_hero_3_disconnected
 .text.guitar_hero_3_handshake
                0x8001aa9c       0xb4 /Programs/devkitpro/libogc/lib/wii/libwiiuse.a(guitar_hero_3.o)
                0x8001aa9c                guitar_hero_3_handshake
 .text.wiiuse_disable_expansion
                0x8001ab50      0x170 /Programs/devkitpro/libogc/lib/wii/libwiiuse.a(io.o)
                0x8001ab50                wiiuse_disable_expansion
 .text.wiiuse_handshake_expansion
                0x8001acc0      0x238 /Programs/devkitpro/libogc/lib/wii/libwiiuse.a(io.o)
                0x8001acc0                wiiuse_handshake_expansion
 .text.wiiuse_handshake_expansion_start
                0x8001aef8       0x24 /Programs/devkitpro/libogc/lib/wii/libwiiuse.a(io.o)
                0x8001aef8                wiiuse_handshake_expansion_start
 .text.wiiuse_handshake
                0x8001af1c      0x164 /Programs/devkitpro/libogc/lib/wii/libwiiuse.a(io.o)
                0x8001af1c                wiiuse_handshake
 .text.nunchuk_event
                0x8001b080       0x88 /Programs/devkitpro/libogc/lib/wii/libwiiuse.a(nunchuk.o)
                0x8001b080                nunchuk_event
 .text.nunchuk_disconnected
                0x8001b108       0x28 /Programs/devkitpro/libogc/lib/wii/libwiiuse.a(nunchuk.o)
                0x8001b108                nunchuk_disconnected
 .text.nunchuk_handshake
                0x8001b130      0x198 /Programs/devkitpro/libogc/lib/wii/libwiiuse.a(nunchuk.o)
                0x8001b130                nunchuk_handshake
 .text.wii_board_event
                0x8001b2c8       0x54 /Programs/devkitpro/libogc/lib/wii/libwiiuse.a(wiiboard.o)
                0x8001b2c8                wii_board_event
 .text.wii_board_disconnected
                0x8001b31c       0x28 /Programs/devkitpro/libogc/lib/wii/libwiiuse.a(wiiboard.o)
                0x8001b31c                wii_board_disconnected
 .text.wii_board_handshake
                0x8001b344      0x174 /Programs/devkitpro/libogc/lib/wii/libwiiuse.a(wiiboard.o)
                0x8001b344                wii_board_handshake
 .text.classic_ctrl_event
                0x8001b4b8       0xa4 /Programs/devkitpro/libogc/lib/wii/libwiiuse.a(classic.o)
                0x8001b4b8                classic_ctrl_event
 .text.classic_ctrl_disconnected
                0x8001b55c       0x28 /Programs/devkitpro/libogc/lib/wii/libwiiuse.a(classic.o)
                0x8001b55c                classic_ctrl_disconnected
 .text.classic_ctrl_handshake
                0x8001b584      0x128 /Programs/devkitpro/libogc/lib/wii/libwiiuse.a(classic.o)
                0x8001b584                classic_ctrl_handshake
 .text.bte_arg  0x8001b6ac       0x38 /Programs/devkitpro/libogc/lib/wii/libbte.a(bte.o)
                0x8001b6ac                bte_arg
 .text.bte_received
                0x8001b6e4       0x38 /Programs/devkitpro/libogc/lib/wii/libbte.a(bte.o)
                0x8001b6e4                bte_received
 .text.bte_disconnected
                0x8001b71c       0x38 /Programs/devkitpro/libogc/lib/wii/libbte.a(bte.o)
                0x8001b71c                bte_disconnected
 .text.acl_wlp_completed
                0x8001b754        0x8 /Programs/devkitpro/libogc/lib/wii/libbte.a(bte.o)
                0x8001b754                acl_wlp_completed
 .text.l2cap_accepted
                0x8001b75c      0x10c /Programs/devkitpro/libogc/lib/wii/libbte.a(bte.o)
                0x8001b75c                l2cap_accepted
 .text.l2cap_disconnected_ind
                0x8001b868      0x174 /Programs/devkitpro/libogc/lib/wii/libbte.a(bte.o)
                0x8001b868                l2cap_disconnected_ind
 .text.__bte_send_pending_request
                0x8001b9dc       0xdc /Programs/devkitpro/libogc/lib/wii/libbte.a(bte.o)
 .text.bte_process_input
                0x8001bab8      0x130 /Programs/devkitpro/libogc/lib/wii/libbte.a(bte.o)
 .text.__bte_send_request
                0x8001bbe8       0xa4 /Programs/devkitpro/libogc/lib/wii/libbte.a(bte.o)
 .text.bte_disconnect
                0x8001bc8c       0xb4 /Programs/devkitpro/libogc/lib/wii/libbte.a(bte.o)
                0x8001bc8c                bte_disconnect
 .text.acl_conn_complete
                0x8001bd40       0x2c /Programs/devkitpro/libogc/lib/wii/libbte.a(bte.o)
                0x8001bd40                acl_conn_complete
 .text.bte_sendmessageasync
                0x8001bd6c      0x138 /Programs/devkitpro/libogc/lib/wii/libbte.a(bte.o)
                0x8001bd6c                bte_sendmessageasync
 .text.bte_registerdeviceasync
                0x8001bea4      0x1c0 /Programs/devkitpro/libogc/lib/wii/libbte.a(bte.o)
                0x8001bea4                bte_registerdeviceasync
 .text.bte_new  0x8001c064       0x60 /Programs/devkitpro/libogc/lib/wii/libbte.a(bte.o)
                0x8001c064                bte_new
 .text.BTE_SetDisconnectCallback
                0x8001c0c4       0x20 /Programs/devkitpro/libogc/lib/wii/libbte.a(bte.o)
                0x8001c0c4                BTE_SetDisconnectCallback
 .text.BTE_InitSub
                0x8001c0e4       0x94 /Programs/devkitpro/libogc/lib/wii/libbte.a(bte.o)
                0x8001c0e4                BTE_InitSub
 .text.BTE_ApplyPatch
                0x8001c178       0xa8 /Programs/devkitpro/libogc/lib/wii/libbte.a(bte.o)
                0x8001c178                BTE_ApplyPatch
 .text.BTE_InitCore
                0x8001c220       0x90 /Programs/devkitpro/libogc/lib/wii/libbte.a(bte.o)
                0x8001c220                BTE_InitCore
 .text.BTE_ReadStoredLinkKey
                0x8001c2b0       0x94 /Programs/devkitpro/libogc/lib/wii/libbte.a(bte.o)
                0x8001c2b0                BTE_ReadStoredLinkKey
 .text.BTE_Shutdown
                0x8001c344      0x114 /Programs/devkitpro/libogc/lib/wii/libbte.a(bte.o)
                0x8001c344                BTE_Shutdown
 .text.__bte_shutdown_finished
                0x8001c458      0x118 /Programs/devkitpro/libogc/lib/wii/libbte.a(bte.o)
 .text.BTE_Init
                0x8001c570      0x134 /Programs/devkitpro/libogc/lib/wii/libbte.a(bte.o)
                0x8001c570                BTE_Init
 .text.bt_alarmhandler
                0x8001c6a4       0x60 /Programs/devkitpro/libogc/lib/wii/libbte.a(bte.o)
 .text.l2cap_disconnect_cfm
                0x8001c704      0x1ac /Programs/devkitpro/libogc/lib/wii/libbte.a(bte.o)
                0x8001c704                l2cap_disconnect_cfm
 .text.bte_hci_initsub_complete
                0x8001c8b0      0x230 /Programs/devkitpro/libogc/lib/wii/libbte.a(bte.o)
                0x8001c8b0                bte_hci_initsub_complete
 .text.bte_hci_patch_complete
                0x8001cae0      0x2b8 /Programs/devkitpro/libogc/lib/wii/libbte.a(bte.o)
                0x8001cae0                bte_hci_patch_complete
 .text.bte_hci_apply_patch_complete
                0x8001cd98      0x15c /Programs/devkitpro/libogc/lib/wii/libbte.a(bte.o)
                0x8001cd98                bte_hci_apply_patch_complete
 .text.bte_hci_initcore_complete
                0x8001cef4      0x208 /Programs/devkitpro/libogc/lib/wii/libbte.a(bte.o)
                0x8001cef4                bte_hci_initcore_complete
 .text.bte_hci_initcore_complete2
                0x8001d0fc      0x1e4 /Programs/devkitpro/libogc/lib/wii/libbte.a(bte.o)
                0x8001d0fc                bte_hci_initcore_complete2
 .text.bte_read_stored_link_key_complete
                0x8001d2e0      0x264 /Programs/devkitpro/libogc/lib/wii/libbte.a(bte.o)
                0x8001d2e0                bte_read_stored_link_key_complete
 .text.hci_get_link
                0x8001d544       0x88 /Programs/devkitpro/libogc/lib/wii/libbte.a(hci.o)
                0x8001d544                hci_get_link
 .text.hci_arg  0x8001d5cc       0x10 /Programs/devkitpro/libogc/lib/wii/libbte.a(hci.o)
                0x8001d5cc                hci_arg
 .text.hci_cmd_complete
                0x8001d5dc       0x10 /Programs/devkitpro/libogc/lib/wii/libbte.a(hci.o)
                0x8001d5dc                hci_cmd_complete
 .text.hci_connection_complete
                0x8001d5ec       0x10 /Programs/devkitpro/libogc/lib/wii/libbte.a(hci.o)
                0x8001d5ec                hci_connection_complete
 .text.hci_wlp_complete
                0x8001d5fc       0x10 /Programs/devkitpro/libogc/lib/wii/libbte.a(hci.o)
                0x8001d5fc                hci_wlp_complete
 .text.hci_cmd_ass
                0x8001d60c       0x4c /Programs/devkitpro/libogc/lib/wii/libbte.a(hci.o)
                0x8001d60c                hci_cmd_ass
 .text.lp_pdu_maxsize
                0x8001d658       0x10 /Programs/devkitpro/libogc/lib/wii/libbte.a(hci.o)
                0x8001d658                lp_pdu_maxsize
 .text.hci_host_num_comp_packets
                0x8001d668       0xcc /Programs/devkitpro/libogc/lib/wii/libbte.a(hci.o)
                0x8001d668                hci_host_num_comp_packets
 .text.hci_write_cod
                0x8001d734       0x8c /Programs/devkitpro/libogc/lib/wii/libbte.a(hci.o)
                0x8001d734                hci_write_cod
 .text.hci_disconnect
                0x8001d7c0       0xb8 /Programs/devkitpro/libogc/lib/wii/libbte.a(hci.o)
                0x8001d7c0                hci_disconnect
 .text.hci_pin_code_request_neg_reply
                0x8001d878       0x8c /Programs/devkitpro/libogc/lib/wii/libbte.a(hci.o)
                0x8001d878                hci_pin_code_request_neg_reply
 .text.hci_vendor_specific_command
                0x8001d904       0xb8 /Programs/devkitpro/libogc/lib/wii/libbte.a(hci.o)
                0x8001d904                hci_vendor_specific_command
 .text.hci_write_inquiry_scan_type
                0x8001d9bc       0x80 /Programs/devkitpro/libogc/lib/wii/libbte.a(hci.o)
                0x8001d9bc                hci_write_inquiry_scan_type
 .text.hci_write_page_scan_type
                0x8001da3c       0x80 /Programs/devkitpro/libogc/lib/wii/libbte.a(hci.o)
                0x8001da3c                hci_write_page_scan_type
 .text.hci_write_inquiry_mode
                0x8001dabc       0x80 /Programs/devkitpro/libogc/lib/wii/libbte.a(hci.o)
                0x8001dabc                hci_write_inquiry_mode
 .text.hci_write_pin_type
                0x8001db3c       0x80 /Programs/devkitpro/libogc/lib/wii/libbte.a(hci.o)
                0x8001db3c                hci_write_pin_type
 .text.hci_write_local_name
                0x8001dbbc       0x9c /Programs/devkitpro/libogc/lib/wii/libbte.a(hci.o)
                0x8001dbbc                hci_write_local_name
 .text.hci_accecpt_conn_request
                0x8001dc58       0xa0 /Programs/devkitpro/libogc/lib/wii/libbte.a(hci.o)
                0x8001dc58                hci_accecpt_conn_request
 .text.hci_write_scan_enable
                0x8001dcf8       0x80 /Programs/devkitpro/libogc/lib/wii/libbte.a(hci.o)
                0x8001dcf8                hci_write_scan_enable
 .text.hci_read_local_features
                0x8001dd78       0x6c /Programs/devkitpro/libogc/lib/wii/libbte.a(hci.o)
                0x8001dd78                hci_read_local_features
 .text.hci_read_local_version
                0x8001dde4       0x6c /Programs/devkitpro/libogc/lib/wii/libbte.a(hci.o)
                0x8001dde4                hci_read_local_version
 .text.hci_read_bd_addr
                0x8001de50       0x6c /Programs/devkitpro/libogc/lib/wii/libbte.a(hci.o)
                0x8001de50                hci_read_bd_addr
 .text.hci_read_buffer_size
                0x8001debc       0x6c /Programs/devkitpro/libogc/lib/wii/libbte.a(hci.o)
                0x8001debc                hci_read_buffer_size
 .text.hci_reset
                0x8001df28       0x6c /Programs/devkitpro/libogc/lib/wii/libbte.a(hci.o)
                0x8001df28                hci_reset
 .text.lp_acl_write
                0x8001df94      0x180 /Programs/devkitpro/libogc/lib/wii/libbte.a(hci.o)
                0x8001df94                lp_acl_write
 .text.hci_new  0x8001e114       0x54 /Programs/devkitpro/libogc/lib/wii/libbte.a(hci.o)
                0x8001e114                hci_new
 .text.hci_read_stored_link_key
                0x8001e168       0xd4 /Programs/devkitpro/libogc/lib/wii/libbte.a(hci.o)
                0x8001e168                hci_read_stored_link_key
 .text.hci_close
                0x8001e23c       0xec /Programs/devkitpro/libogc/lib/wii/libbte.a(hci.o)
                0x8001e23c                hci_close
 .text.hci_init
                0x8001e328       0xa0 /Programs/devkitpro/libogc/lib/wii/libbte.a(hci.o)
                0x8001e328                hci_init
 .text.hci_reset_all
                0x8001e3c8       0xd4 /Programs/devkitpro/libogc/lib/wii/libbte.a(hci.o)
                0x8001e3c8                hci_reset_all
 .text.hci_write_page_timeout
                0x8001e49c       0x90 /Programs/devkitpro/libogc/lib/wii/libbte.a(hci.o)
                0x8001e49c                hci_write_page_timeout
 .text.hci_acldata_handler
                0x8001e52c      0x138 /Programs/devkitpro/libogc/lib/wii/libbte.a(hci.o)
                0x8001e52c                hci_acldata_handler
 .text.hci_event_handler
                0x8001e664      0xb98 /Programs/devkitpro/libogc/lib/wii/libbte.a(hci.o)
                0x8001e664                hci_event_handler
 .text.lp_write_flush_timeout
                0x8001f1fc       0xc0 /Programs/devkitpro/libogc/lib/wii/libbte.a(hci.o)
                0x8001f1fc                lp_write_flush_timeout
 .text.hci_host_buffer_size
                0x8001f2bc       0xd0 /Programs/devkitpro/libogc/lib/wii/libbte.a(hci.o)
                0x8001f2bc                hci_host_buffer_size
 .text.hci_write_link_policy_settings
                0x8001f38c       0xc0 /Programs/devkitpro/libogc/lib/wii/libbte.a(hci.o)
                0x8001f38c                hci_write_link_policy_settings
 .text.l2cap_cid_alloc
                0x8001f44c       0x60 /Programs/devkitpro/libogc/lib/wii/libbte.a(l2cap.o)
 .text.lp_connect_ind
                0x8001f4ac        0x4 /Programs/devkitpro/libogc/lib/wii/libbte.a(l2cap.o)
                0x8001f4ac                lp_connect_ind
 .text.l2cap_disconnect_bb
                0x8001f4b0       0x14 /Programs/devkitpro/libogc/lib/wii/libbte.a(l2cap.o)
                0x8001f4b0                l2cap_disconnect_bb
 .text.l2cap_next_sigid
                0x8001f4c4       0x2c /Programs/devkitpro/libogc/lib/wii/libbte.a(l2cap.o)
                0x8001f4c4                l2cap_next_sigid
 .text.l2cap_arg
                0x8001f4f0        0x8 /Programs/devkitpro/libogc/lib/wii/libbte.a(l2cap.o)
                0x8001f4f0                l2cap_arg
 .text.l2cap_disconnect_ind
                0x8001f4f8        0x8 /Programs/devkitpro/libogc/lib/wii/libbte.a(l2cap.o)
                0x8001f4f8                l2cap_disconnect_ind
 .text.l2cap_recv
                0x8001f500        0x8 /Programs/devkitpro/libogc/lib/wii/libbte.a(l2cap.o)
                0x8001f500                l2cap_recv
 .text.l2cap_connect_ind
                0x8001f508      0x108 /Programs/devkitpro/libogc/lib/wii/libbte.a(l2cap.o)
                0x8001f508                l2cap_connect_ind
 .text.l2cap_close
                0x8001f610      0x1e8 /Programs/devkitpro/libogc/lib/wii/libbte.a(l2cap.o)
                0x8001f610                l2cap_close
 .text.lp_disconnect_ind
                0x8001f7f8      0x114 /Programs/devkitpro/libogc/lib/wii/libbte.a(l2cap.o)
                0x8001f7f8                lp_disconnect_ind
 .text.l2cap_new
                0x8001f90c       0x80 /Programs/devkitpro/libogc/lib/wii/libbte.a(l2cap.o)
                0x8001f90c                l2cap_new
 .text.l2cap_write
                0x8001f98c      0x1a4 /Programs/devkitpro/libogc/lib/wii/libbte.a(l2cap.o)
                0x8001f98c                l2cap_write
 .text.l2cap_rexmit_signal
                0x8001fb30       0x2c /Programs/devkitpro/libogc/lib/wii/libbte.a(l2cap.o)
                0x8001fb30                l2cap_rexmit_signal
 .text.l2cap_signal
                0x8001fb5c      0x1e0 /Programs/devkitpro/libogc/lib/wii/libbte.a(l2cap.o)
                0x8001fb5c                l2cap_signal
 .text.l2ca_disconnect_req
                0x8001fd3c       0xc0 /Programs/devkitpro/libogc/lib/wii/libbte.a(l2cap.o)
                0x8001fd3c                l2ca_disconnect_req
 .text.l2cap_tmr
                0x8001fdfc      0x244 /Programs/devkitpro/libogc/lib/wii/libbte.a(l2cap.o)
                0x8001fdfc                l2cap_tmr
 .text.l2ca_config_req
                0x80020040      0x154 /Programs/devkitpro/libogc/lib/wii/libbte.a(l2cap.o)
                0x80020040                l2ca_config_req
 .text.l2cap_process_sig
                0x80020194     0x1238 /Programs/devkitpro/libogc/lib/wii/libbte.a(l2cap.o)
                0x80020194                l2cap_process_sig
 .text.l2cap_init
                0x800213cc       0x88 /Programs/devkitpro/libogc/lib/wii/libbte.a(l2cap.o)
                0x800213cc                l2cap_init
 .text.l2cap_reset_all
                0x80021454      0x154 /Programs/devkitpro/libogc/lib/wii/libbte.a(l2cap.o)
                0x80021454                l2cap_reset_all
 .text.lp_connect_cfm
                0x800215a8      0x14c /Programs/devkitpro/libogc/lib/wii/libbte.a(l2cap.o)
                0x800215a8                lp_connect_cfm
 .text.l2ca_datawrite
                0x800216f4      0x114 /Programs/devkitpro/libogc/lib/wii/libbte.a(l2cap.o)
                0x800216f4                l2ca_datawrite
 .text.l2cap_input
                0x80021808      0x5d0 /Programs/devkitpro/libogc/lib/wii/libbte.a(l2cap.o)
                0x80021808                l2cap_input
 .text.btmemb_alloc
                0x80021dd8       0xc0 /Programs/devkitpro/libogc/lib/wii/libbte.a(btmemb.o)
                0x80021dd8                btmemb_alloc
 .text.btmemb_free
                0x80021e98       0xbc /Programs/devkitpro/libogc/lib/wii/libbte.a(btmemb.o)
                0x80021e98                btmemb_free
 .text.btmemb_init
                0x80021f54       0x40 /Programs/devkitpro/libogc/lib/wii/libbte.a(btmemb.o)
                0x80021f54                btmemb_init
 .text.plug_holes
                0x80021f94       0xcc /Programs/devkitpro/libogc/lib/wii/libbte.a(btmemr.o)
 .text.btmemr_malloc
                0x80022060      0x190 /Programs/devkitpro/libogc/lib/wii/libbte.a(btmemr.o)
                0x80022060                btmemr_malloc
 .text.btmemr_free
                0x800221f0       0xa4 /Programs/devkitpro/libogc/lib/wii/libbte.a(btmemr.o)
                0x800221f0                btmemr_free
 .text.btmemr_realloc
                0x80022294      0x118 /Programs/devkitpro/libogc/lib/wii/libbte.a(btmemr.o)
                0x80022294                btmemr_realloc
 .text.btmemr_init
                0x800223ac       0xa8 /Programs/devkitpro/libogc/lib/wii/libbte.a(btmemr.o)
                0x800223ac                btmemr_init
 .text.btpbuf_header
                0x80022454       0xa8 /Programs/devkitpro/libogc/lib/wii/libbte.a(btpbuf.o)
                0x80022454                btpbuf_header
 .text.btpbuf_ref
                0x800224fc       0x48 /Programs/devkitpro/libogc/lib/wii/libbte.a(btpbuf.o)
                0x800224fc                btpbuf_ref
 .text.btpbuf_cat
                0x80022544       0x5c /Programs/devkitpro/libogc/lib/wii/libbte.a(btpbuf.o)
                0x80022544                btpbuf_cat
 .text.btpbuf_chain
                0x800225a0       0x30 /Programs/devkitpro/libogc/lib/wii/libbte.a(btpbuf.o)
                0x800225a0                btpbuf_chain
 .text.btpbuf_free
                0x800225d0      0x110 /Programs/devkitpro/libogc/lib/wii/libbte.a(btpbuf.o)
                0x800225d0                btpbuf_free
 .text.btpbuf_dechain
                0x800226e0       0x7c /Programs/devkitpro/libogc/lib/wii/libbte.a(btpbuf.o)
                0x800226e0                btpbuf_dechain
 .text.btpbuf_realloc
                0x8002275c       0xc0 /Programs/devkitpro/libogc/lib/wii/libbte.a(btpbuf.o)
                0x8002275c                btpbuf_realloc
 .text.btpbuf_alloc
                0x8002281c      0x244 /Programs/devkitpro/libogc/lib/wii/libbte.a(btpbuf.o)
                0x8002281c                btpbuf_alloc
 .text.btpbuf_take
                0x80022a60      0x124 /Programs/devkitpro/libogc/lib/wii/libbte.a(btpbuf.o)
                0x80022a60                btpbuf_take
 .text.btpbuf_init
                0x80022b84       0x34 /Programs/devkitpro/libogc/lib/wii/libbte.a(btpbuf.o)
                0x80022b84                btpbuf_init
 .text.__usb_closeCB
                0x80022bb8       0x10 /Programs/devkitpro/libogc/lib/wii/libbte.a(physbusif.o)
 .text.physbusif_close
                0x80022bc8       0x2c /Programs/devkitpro/libogc/lib/wii/libbte.a(physbusif.o)
                0x80022bc8                physbusif_close
 .text.physbusif_reset_all
                0x80022bf4        0x4 /Programs/devkitpro/libogc/lib/wii/libbte.a(physbusif.o)
                0x80022bf4                physbusif_reset_all
 .text.physbusif_output
                0x80022bf8      0x18c /Programs/devkitpro/libogc/lib/wii/libbte.a(physbusif.o)
                0x80022bf8                physbusif_output
 .text.__writebulkmsgCB
                0x80022d84       0x40 /Programs/devkitpro/libogc/lib/wii/libbte.a(physbusif.o)
 .text.__writectrlmsgCB
                0x80022dc4       0x40 /Programs/devkitpro/libogc/lib/wii/libbte.a(physbusif.o)
 .text.physbusif_shutdown
                0x80022e04       0x50 /Programs/devkitpro/libogc/lib/wii/libbte.a(physbusif.o)
                0x80022e04                physbusif_shutdown
 .text.__initUsbIOBuffer
                0x80022e54       0x98 /Programs/devkitpro/libogc/lib/wii/libbte.a(physbusif.o)
 .text.__issue_intrread
                0x80022eec       0xbc /Programs/devkitpro/libogc/lib/wii/libbte.a(physbusif.o)
 .text.__readintrdataCB
                0x80022fa8      0x120 /Programs/devkitpro/libogc/lib/wii/libbte.a(physbusif.o)
 .text.__issue_bulkread
                0x800230c8       0xbc /Programs/devkitpro/libogc/lib/wii/libbte.a(physbusif.o)
 .text.physbusif_init
                0x80023184      0x1d0 /Programs/devkitpro/libogc/lib/wii/libbte.a(physbusif.o)
                0x80023184                physbusif_init
 .text.__readbulkdataCB
                0x80023354      0x120 /Programs/devkitpro/libogc/lib/wii/libbte.a(physbusif.o)
 .text.__console_clear
                0x80023474       0x60 /Programs/devkitpro/libogc/lib/wii/libogc.a(console.o)
 .text.__console_init
                0x800234d4      0x128 /Programs/devkitpro/libogc/lib/wii/libogc.a(console.o)
                0x800234d4                __console_init
 .text.CON_Init
                0x800235fc        0x4 /Programs/devkitpro/libogc/lib/wii/libogc.a(console.o)
                0x800235fc                CON_Init
 .text.__console_write
                0x80023600      0x644 /Programs/devkitpro/libogc/lib/wii/libogc.a(console.o)
                0x80023600                __console_write
 .text.__lwp_queue_initialize
                0x80023c44       0x54 /Programs/devkitpro/libogc/lib/wii/libogc.a(lwp_queue.o)
                0x80023c44                __lwp_queue_initialize
 .text.__lwp_queue_get
                0x80023c98       0x7c /Programs/devkitpro/libogc/lib/wii/libogc.a(lwp_queue.o)
                0x80023c98                __lwp_queue_get
 .text.__lwp_queue_append
                0x80023d14       0x4c /Programs/devkitpro/libogc/lib/wii/libogc.a(lwp_queue.o)
                0x80023d14                __lwp_queue_append
 .text.__lwp_isr_in_progress
                0x80023d60        0x8 /Programs/devkitpro/libogc/lib/wii/libogc.a(lwp_threads.o)
                0x80023d60                __lwp_isr_in_progress
 .text.__lwp_thread_resettimeslice
                0x80023d68       0xd0 /Programs/devkitpro/libogc/lib/wii/libogc.a(lwp_threads.o)
                0x80023d68                __lwp_thread_resettimeslice
 .text.__lwp_thread_setstate
                0x80023e38      0x158 /Programs/devkitpro/libogc/lib/wii/libogc.a(lwp_threads.o)
                0x80023e38                __lwp_thread_setstate
 .text.__lwp_thread_clearstate
                0x80023f90      0x104 /Programs/devkitpro/libogc/lib/wii/libogc.a(lwp_threads.o)
                0x80023f90                __lwp_thread_clearstate
 .text.__lwp_thread_setpriority
                0x80024094       0x5c /Programs/devkitpro/libogc/lib/wii/libogc.a(lwp_threads.o)
                0x80024094                __lwp_thread_setpriority
 .text.__lwp_thread_settransient
                0x800240f0       0xd0 /Programs/devkitpro/libogc/lib/wii/libogc.a(lwp_threads.o)
                0x800240f0                __lwp_thread_settransient
 .text.__lwp_thread_loadenv
                0x800241c0       0x78 /Programs/devkitpro/libogc/lib/wii/libogc.a(lwp_threads.o)
                0x800241c0                __lwp_thread_loadenv
 .text.__lwp_thread_ready
                0x80024238       0xf8 /Programs/devkitpro/libogc/lib/wii/libogc.a(lwp_threads.o)
                0x80024238                __lwp_thread_ready
 .text.__thread_dispatch
                0x80024330      0x12c /Programs/devkitpro/libogc/lib/wii/libogc.a(lwp_threads.o)
                0x80024330                __thread_dispatch
 .text.__lwp_thread_start
                0x8002445c       0x64 /Programs/devkitpro/libogc/lib/wii/libogc.a(lwp_threads.o)
                0x8002445c                __lwp_thread_start
 .text.__lwp_thread_close
                0x800244c0      0x138 /Programs/devkitpro/libogc/lib/wii/libogc.a(lwp_threads.o)
                0x800244c0                __lwp_thread_close
 .text.__lwp_thread_closeall
                0x800245f8       0xd4 /Programs/devkitpro/libogc/lib/wii/libogc.a(lwp_threads.o)
                0x800245f8                __lwp_thread_closeall
 .text.__lwp_thread_init
                0x800246cc      0x124 /Programs/devkitpro/libogc/lib/wii/libogc.a(lwp_threads.o)
                0x800246cc                __lwp_thread_init
 .text.__thread_dispatch_fp
                0x800247f0       0x9c /Programs/devkitpro/libogc/lib/wii/libogc.a(lwp_threads.o)
                0x800247f0                __thread_dispatch_fp
 .text.__lwp_thread_stopmultitasking
                0x8002488c       0x64 /Programs/devkitpro/libogc/lib/wii/libogc.a(lwp_threads.o)
                0x8002488c                __lwp_thread_stopmultitasking
 .text.__lwp_thread_changepriority
                0x800248f0      0x1b8 /Programs/devkitpro/libogc/lib/wii/libogc.a(lwp_threads.o)
                0x800248f0                __lwp_thread_changepriority
 .text.__lwp_thread_coreinit
                0x80024aa8       0x94 /Programs/devkitpro/libogc/lib/wii/libogc.a(lwp_threads.o)
                0x80024aa8                __lwp_thread_coreinit
 .text.__lwp_thread_exit
                0x80024b3c       0x70 /Programs/devkitpro/libogc/lib/wii/libogc.a(lwp_threads.o)
                0x80024b3c                __lwp_thread_exit
 .text.__lwp_thread_handler
                0x80024bac       0x7c /Programs/devkitpro/libogc/lib/wii/libogc.a(lwp_threads.o)
 .text.__lwp_thread_startmultitasking
                0x80024c28       0xcc /Programs/devkitpro/libogc/lib/wii/libogc.a(lwp_threads.o)
                0x80024c28                __lwp_thread_startmultitasking
 .text.__lwp_thread_tickle_timeslice
                0x80024cf4       0xe0 /Programs/devkitpro/libogc/lib/wii/libogc.a(lwp_threads.o)
                0x80024cf4                __lwp_thread_tickle_timeslice
 .text.idle_func
                0x80024dd4        0x4 /Programs/devkitpro/libogc/lib/wii/libogc.a(lwp.o)
 .text.__lwp_sysinit
                0x80024dd8      0x118 /Programs/devkitpro/libogc/lib/wii/libogc.a(lwp.o)
                0x80024dd8                __lwp_sysinit
 .text.LWP_ThreadSignal
                0x80024ef0       0x74 /Programs/devkitpro/libogc/lib/wii/libogc.a(lwp.o)
                0x80024ef0                LWP_ThreadSignal
 .text.LWP_ThreadBroadcast
                0x80024f64       0x88 /Programs/devkitpro/libogc/lib/wii/libogc.a(lwp.o)
                0x80024f64                LWP_ThreadBroadcast
 .text.LWP_ThreadSleep
                0x80024fec       0xe0 /Programs/devkitpro/libogc/lib/wii/libogc.a(lwp.o)
                0x80024fec                LWP_ThreadSleep
 .text.LWP_CloseQueue
                0x800250cc       0xe8 /Programs/devkitpro/libogc/lib/wii/libogc.a(lwp.o)
                0x800250cc                LWP_CloseQueue
 .text.LWP_InitQueue
                0x800251b4      0x124 /Programs/devkitpro/libogc/lib/wii/libogc.a(lwp.o)
                0x800251b4                LWP_InitQueue
 .text.__lwp_stack_free
                0x800252d8       0x38 /Programs/devkitpro/libogc/lib/wii/libogc.a(lwp_stack.o)
                0x800252d8                __lwp_stack_free
 .text.__lwp_stack_allocate
                0x80025310       0x6c /Programs/devkitpro/libogc/lib/wii/libogc.a(lwp_stack.o)
                0x80025310                __lwp_stack_allocate
 .text.__lwp_watchdog_init
                0x8002537c       0x2c /Programs/devkitpro/libogc/lib/wii/libogc.a(lwp_watchdog.o)
                0x8002537c                __lwp_watchdog_init
 .text.__lwp_wd_settimer
                0x800253a8       0xe0 /Programs/devkitpro/libogc/lib/wii/libogc.a(lwp_watchdog.o)
 .text.__lwp_wd_remove
                0x80025488      0x104 /Programs/devkitpro/libogc/lib/wii/libogc.a(lwp_watchdog.o)
                0x80025488                __lwp_wd_remove
 .text.__lwp_wd_insert
                0x8002558c      0x1c4 /Programs/devkitpro/libogc/lib/wii/libogc.a(lwp_watchdog.o)
                0x8002558c                __lwp_wd_insert
 .text.__lwp_wd_tickle
                0x80025750      0x130 /Programs/devkitpro/libogc/lib/wii/libogc.a(lwp_watchdog.o)
                0x80025750                __lwp_wd_tickle
 .text.__lwp_wkspace_init
                0x80025880       0xc8 /Programs/devkitpro/libogc/lib/wii/libogc.a(lwp_wkspace.o)
                0x80025880                __lwp_wkspace_init
 .text.__lwp_objmgr_getisrdisable
                0x80025948       0x64 /Programs/devkitpro/libogc/lib/wii/libogc.a(lwp_objmgr.o)
                0x80025948                __lwp_objmgr_getisrdisable
 .text.__lwp_objmgr_getnoprotection
                0x800259ac       0x24 /Programs/devkitpro/libogc/lib/wii/libogc.a(lwp_objmgr.o)
                0x800259ac                __lwp_objmgr_getnoprotection
 .text.__lwp_objmgr_allocate
                0x800259d0       0x74 /Programs/devkitpro/libogc/lib/wii/libogc.a(lwp_objmgr.o)
                0x800259d0                __lwp_objmgr_allocate
 .text.__lwp_objmgr_free
                0x80025a44       0x5c /Programs/devkitpro/libogc/lib/wii/libogc.a(lwp_objmgr.o)
                0x80025a44                __lwp_objmgr_free
 .text.__lwp_objmgr_get
                0x80025aa0       0x78 /Programs/devkitpro/libogc/lib/wii/libogc.a(lwp_objmgr.o)
                0x80025aa0                __lwp_objmgr_get
 .text.__lwp_objmgr_initinfo
                0x80025b18      0x1b0 /Programs/devkitpro/libogc/lib/wii/libogc.a(lwp_objmgr.o)
                0x80025b18                __lwp_objmgr_initinfo
 .text.__lwp_heap_init
                0x80025cc8       0x9c /Programs/devkitpro/libogc/lib/wii/libogc.a(lwp_heap.o)
                0x80025cc8                __lwp_heap_init
 .text.__lwp_heap_free
                0x80025d64      0x1d4 /Programs/devkitpro/libogc/lib/wii/libogc.a(lwp_heap.o)
                0x80025d64                __lwp_heap_free
 .text.__lwp_heap_allocate
                0x80025f38      0x16c /Programs/devkitpro/libogc/lib/wii/libogc.a(lwp_heap.o)
                0x80025f38                __lwp_heap_allocate
 .text.c_irqdispatcher
                0x800260a4      0x2ac /Programs/devkitpro/libogc/lib/wii/libogc.a(irq.o)
                0x800260a4                c_irqdispatcher
 .text.__SetInterrupts
                0x80026350      0x268 /Programs/devkitpro/libogc/lib/wii/libogc.a(irq.o)
 .text.__UnmaskIrq
                0x800265b8       0x90 /Programs/devkitpro/libogc/lib/wii/libogc.a(irq.o)
                0x800265b8                __UnmaskIrq
 .text.__MaskIrq
                0x80026648       0x90 /Programs/devkitpro/libogc/lib/wii/libogc.a(irq.o)
                0x80026648                __MaskIrq
 .text.IRQ_Request
                0x800266d8       0x54 /Programs/devkitpro/libogc/lib/wii/libogc.a(irq.o)
                0x800266d8                IRQ_Request
 .text.IRQ_GetHandler
                0x8002672c       0x44 /Programs/devkitpro/libogc/lib/wii/libogc.a(irq.o)
                0x8002672c                IRQ_GetHandler
 .text.IRQ_Disable
                0x80026770       0x20 /Programs/devkitpro/libogc/lib/wii/libogc.a(irq.o)
                0x80026770                IRQ_Disable
 .text.IRQ_Restore
                0x80026790       0x1c /Programs/devkitpro/libogc/lib/wii/libogc.a(irq.o)
                0x80026790                IRQ_Restore
 .text.__irq_init
                0x800267ac       0xac /Programs/devkitpro/libogc/lib/wii/libogc.a(irq.o)
                0x800267ac                __irq_init
 .text.__gettiming
                0x80026858       0xb0 /Programs/devkitpro/libogc/lib/wii/libogc.a(video.o)
 .text.VIDEO_Flush
                0x80026908      0x178 /Programs/devkitpro/libogc/lib/wii/libogc.a(video.o)
                0x80026908                VIDEO_Flush
 .text.VIDEO_GetCurrentTvMode
                0x80026a80       0x70 /Programs/devkitpro/libogc/lib/wii/libogc.a(video.o)
                0x80026a80                VIDEO_GetCurrentTvMode
 .text.VIDEO_HaveComponentCable
                0x80026af0       0x14 /Programs/devkitpro/libogc/lib/wii/libogc.a(video.o)
                0x80026af0                VIDEO_HaveComponentCable
 .text.VIDEO_GetPreferredMode
                0x80026b04       0xd0 /Programs/devkitpro/libogc/lib/wii/libogc.a(video.o)
                0x80026b04                VIDEO_GetPreferredMode
 .text.VIDEO_WaitVSync
                0x80026bd4       0x90 /Programs/devkitpro/libogc/lib/wii/libogc.a(video.o)
                0x80026bd4                VIDEO_WaitVSync
 .text.__VISendI2CData
                0x80026c64      0x560 /Programs/devkitpro/libogc/lib/wii/libogc.a(video.o)
 .text.__VIWriteI2CRegisterBuf
                0x800271c4       0x54 /Programs/devkitpro/libogc/lib/wii/libogc.a(video.o)
 .text.__VIWriteI2CRegister32
                0x80027218       0x58 /Programs/devkitpro/libogc/lib/wii/libogc.a(video.o)
 .text.__VIWriteI2CRegister16
                0x80027270       0x48 /Programs/devkitpro/libogc/lib/wii/libogc.a(video.o)
 .text.__VIWriteI2CRegister8
                0x800272b8       0x3c /Programs/devkitpro/libogc/lib/wii/libogc.a(video.o)
 .text.__VISetFilterEURGB60
                0x800272f4        0xc /Programs/devkitpro/libogc/lib/wii/libogc.a(video.o)
 .text.__VISetYUVSEL
                0x80027300       0x90 /Programs/devkitpro/libogc/lib/wii/libogc.a(video.o)
 .text.VIDEO_Init
                0x80027390      0x818 /Programs/devkitpro/libogc/lib/wii/libogc.a(video.o)
                0x80027390                VIDEO_Init
 .text.__VIRetraceHandler
                0x80027ba8      0x308 /Programs/devkitpro/libogc/lib/wii/libogc.a(video.o)
 .text.VIDEO_GetCurrentLine
                0x80027eb0       0xa8 /Programs/devkitpro/libogc/lib/wii/libogc.a(video.o)
                0x80027eb0                VIDEO_GetCurrentLine
 .text.VIDEO_SetBlack
                0x80027f58      0x158 /Programs/devkitpro/libogc/lib/wii/libogc.a(video.o)
                0x80027f58                VIDEO_SetBlack
 .text.VIDEO_Configure
                0x800280b0      0x874 /Programs/devkitpro/libogc/lib/wii/libogc.a(video.o)
                0x800280b0                VIDEO_Configure
 .text.VIDEO_SetNextFramebuffer
                0x80028924      0x234 /Programs/devkitpro/libogc/lib/wii/libogc.a(video.o)
                0x80028924                VIDEO_SetNextFramebuffer
 .text.VIDEO_SetFramebuffer
                0x80028b58      0x340 /Programs/devkitpro/libogc/lib/wii/libogc.a(video.o)
                0x80028b58                VIDEO_SetFramebuffer
 .text.__MEMInterruptHandler
                0x80028e98       0x14 /Programs/devkitpro/libogc/lib/wii/libogc.a(system.o)
 .text.__RSWDefaultHandler
                0x80028eac        0x4 /Programs/devkitpro/libogc/lib/wii/libogc.a(system.o)
 .text.__POWDefaultHandler
                0x80028eb0        0x4 /Programs/devkitpro/libogc/lib/wii/libogc.a(system.o)
 .text.__sram_sync
                0x80028eb4        0xc /Programs/devkitpro/libogc/lib/wii/libogc.a(system.o)
 .text.__call_resetfuncs
                0x80028ec0       0xb0 /Programs/devkitpro/libogc/lib/wii/libogc.a(system.o)
 .text.__locksram
                0x80028f70       0x60 /Programs/devkitpro/libogc/lib/wii/libogc.a(system.o)
 .text.__SYS_LockSramEx
                0x80028fd0        0x8 /Programs/devkitpro/libogc/lib/wii/libogc.a(system.o)
                0x80028fd0                __SYS_LockSramEx
 .text.__SYS_GetIPCBufferLo
                0x80028fd8        0xc /Programs/devkitpro/libogc/lib/wii/libogc.a(system.o)
                0x80028fd8                __SYS_GetIPCBufferLo
 .text.__SYS_GetIPCBufferHi
                0x80028fe4        0xc /Programs/devkitpro/libogc/lib/wii/libogc.a(system.o)
                0x80028fe4                __SYS_GetIPCBufferHi
 .text._V_EXPORTNAME
                0x80028ff0       0x24 /Programs/devkitpro/libogc/lib/wii/libogc.a(system.o)
                0x80028ff0                _V_EXPORTNAME
 .text.__SYS_DoPowerCB
                0x80029014       0x78 /Programs/devkitpro/libogc/lib/wii/libogc.a(system.o)
                0x80029014                __SYS_DoPowerCB
 .text.__SYS_InitCallbacks
                0x8002908c       0x30 /Programs/devkitpro/libogc/lib/wii/libogc.a(system.o)
                0x8002908c                __SYS_InitCallbacks
 .text.SYS_ResetButtonDown
                0x800290bc       0x18 /Programs/devkitpro/libogc/lib/wii/libogc.a(system.o)
                0x800290bc                SYS_ResetButtonDown
 .text.__STMEventHandler
                0x800290d4      0x10c /Programs/devkitpro/libogc/lib/wii/libogc.a(system.o)
 .text.SYS_RegisterResetFunc
                0x800291e0       0x94 /Programs/devkitpro/libogc/lib/wii/libogc.a(system.o)
                0x800291e0                SYS_RegisterResetFunc
 .text.SYS_SetArena1Lo
                0x80029274       0x3c /Programs/devkitpro/libogc/lib/wii/libogc.a(system.o)
                0x80029274                SYS_SetArena1Lo
 .text.SYS_GetArena1Lo
                0x800292b0       0x3c /Programs/devkitpro/libogc/lib/wii/libogc.a(system.o)
                0x800292b0                SYS_GetArena1Lo
 .text.SYS_SetArena1Hi
                0x800292ec       0x3c /Programs/devkitpro/libogc/lib/wii/libogc.a(system.o)
                0x800292ec                SYS_SetArena1Hi
 .text.SYS_GetArena1Hi
                0x80029328       0x3c /Programs/devkitpro/libogc/lib/wii/libogc.a(system.o)
                0x80029328                SYS_GetArena1Hi
 .text.SYS_SetArena2Lo
                0x80029364       0x3c /Programs/devkitpro/libogc/lib/wii/libogc.a(system.o)
                0x80029364                SYS_SetArena2Lo
 .text.SYS_GetArena2Lo
                0x800293a0       0x3c /Programs/devkitpro/libogc/lib/wii/libogc.a(system.o)
                0x800293a0                SYS_GetArena2Lo
 .text.SYS_SetArena2Hi
                0x800293dc       0x3c /Programs/devkitpro/libogc/lib/wii/libogc.a(system.o)
                0x800293dc                SYS_SetArena2Hi
 .text.SYS_GetArena2Hi
                0x80029418       0x3c /Programs/devkitpro/libogc/lib/wii/libogc.a(system.o)
                0x80029418                SYS_GetArena2Hi
 .text.SYS_GetHollywoodRevision
                0x80029454       0x3c /Programs/devkitpro/libogc/lib/wii/libogc.a(system.o)
                0x80029454                SYS_GetHollywoodRevision
 .text.SYS_AllocateFramebuffer
                0x80029490       0x3c /Programs/devkitpro/libogc/lib/wii/libogc.a(system.o)
                0x80029490                SYS_AllocateFramebuffer
 .text.__mem_onreset
                0x800294cc       0x54 /Programs/devkitpro/libogc/lib/wii/libogc.a(system.o)
 .text.SYS_PreMain
                0x80029520       0x38 /Programs/devkitpro/libogc/lib/wii/libogc.a(system.o)
                0x80029520                SYS_PreMain
 .text.__sram_init
                0x80029558      0x168 /Programs/devkitpro/libogc/lib/wii/libogc.a(system.o)
                0x80029558                __sram_init
 .text.SYS_Init
                0x800296c0      0x540 /Programs/devkitpro/libogc/lib/wii/libogc.a(system.o)
                0x800296c0                SYS_Init
 .text.__sram_write
                0x80029c00      0x148 /Programs/devkitpro/libogc/lib/wii/libogc.a(system.o)
 .text.__unlocksram
                0x80029d48      0x14c /Programs/devkitpro/libogc/lib/wii/libogc.a(system.o)
 .text.__SYS_UnlockSramEx
                0x80029e94        0x8 /Programs/devkitpro/libogc/lib/wii/libogc.a(system.o)
                0x80029e94                __SYS_UnlockSramEx
 .text.SYS_GetWirelessID
                0x80029e9c       0x4c /Programs/devkitpro/libogc/lib/wii/libogc.a(system.o)
                0x80029e9c                SYS_GetWirelessID
 .text.SYS_SetWirelessID
                0x80029ee8       0x60 /Programs/devkitpro/libogc/lib/wii/libogc.a(system.o)
                0x80029ee8                SYS_SetWirelessID
 .text.__sram_writecallback
                0x80029f48       0x58 /Programs/devkitpro/libogc/lib/wii/libogc.a(system.o)
 .text.SYS_ResetSystem
                0x80029fa0      0x234 /Programs/devkitpro/libogc/lib/wii/libogc.a(system.o)
                0x80029fa0                SYS_ResetSystem
 .text.SYS_CreateAlarm
                0x8002a1d4      0x10c /Programs/devkitpro/libogc/lib/wii/libogc.a(system.o)
                0x8002a1d4                SYS_CreateAlarm
 .text.SYS_CancelAlarm
                0x8002a2e0       0xb0 /Programs/devkitpro/libogc/lib/wii/libogc.a(system.o)
                0x8002a2e0                SYS_CancelAlarm
 .text.SYS_RemoveAlarm
                0x8002a390       0xf0 /Programs/devkitpro/libogc/lib/wii/libogc.a(system.o)
                0x8002a390                SYS_RemoveAlarm
 .text.SYS_SetAlarm
                0x8002a480      0x17c /Programs/devkitpro/libogc/lib/wii/libogc.a(system.o)
                0x8002a480                SYS_SetAlarm
 .text.__sys_alarmhandler
                0x8002a5fc      0x104 /Programs/devkitpro/libogc/lib/wii/libogc.a(system.o)
 .text.SYS_SetPeriodicAlarm
                0x8002a700      0x1dc /Programs/devkitpro/libogc/lib/wii/libogc.a(system.o)
                0x8002a700                SYS_SetPeriodicAlarm
 .text.__lwp_cond_init
                0x8002a8dc       0x30 /Programs/devkitpro/libogc/lib/wii/libogc.a(cond.o)
                0x8002a8dc                __lwp_cond_init
 .text.__decrementer_init
                0x8002a90c        0x4 /Programs/devkitpro/libogc/lib/wii/libogc.a(decrementer.o)
                0x8002a90c                __decrementer_init
 .text.c_decrementer_handler
                0x8002a910       0x28 /Programs/devkitpro/libogc/lib/wii/libogc.a(decrementer.o)
                0x8002a910                c_decrementer_handler
 .text.__lwp_mqbox_init
                0x8002a938       0x30 /Programs/devkitpro/libogc/lib/wii/libogc.a(message.o)
                0x8002a938                __lwp_mqbox_init
 .text.__si_transfer
                0x8002a968      0x15c /Programs/devkitpro/libogc/lib/wii/libogc.a(si.o)
 .text.__si_alarmhandler
                0x8002aac4       0xb4 /Programs/devkitpro/libogc/lib/wii/libogc.a(si.o)
 .text.__si_calltypandstatuscallback
                0x8002ab78       0x8c /Programs/devkitpro/libogc/lib/wii/libogc.a(si.o)
 .text.SI_IsChanBusy
                0x8002ac04       0x38 /Programs/devkitpro/libogc/lib/wii/libogc.a(si.o)
                0x8002ac04                SI_IsChanBusy
 .text.SI_SetXY
                0x8002ac3c       0x64 /Programs/devkitpro/libogc/lib/wii/libogc.a(si.o)
                0x8002ac3c                SI_SetXY
 .text.SI_DisablePolling
                0x8002aca0       0x58 /Programs/devkitpro/libogc/lib/wii/libogc.a(si.o)
                0x8002aca0                SI_DisablePolling
 .text.SI_GetStatus
                0x8002acf8       0x7c /Programs/devkitpro/libogc/lib/wii/libogc.a(si.o)
                0x8002acf8                SI_GetStatus
 .text.SI_GetResponseRaw
                0x8002ad74       0x78 /Programs/devkitpro/libogc/lib/wii/libogc.a(si.o)
                0x8002ad74                SI_GetResponseRaw
 .text.SI_GetResponse
                0x8002adec       0xb4 /Programs/devkitpro/libogc/lib/wii/libogc.a(si.o)
                0x8002adec                SI_GetResponse
 .text.SI_SetCommand
                0x8002aea0       0x10 /Programs/devkitpro/libogc/lib/wii/libogc.a(si.o)
                0x8002aea0                SI_SetCommand
 .text.SI_TransferCommands
                0x8002aeb0       0x14 /Programs/devkitpro/libogc/lib/wii/libogc.a(si.o)
                0x8002aeb0                SI_TransferCommands
 .text.SI_EnablePolling
                0x8002aec4       0xa0 /Programs/devkitpro/libogc/lib/wii/libogc.a(si.o)
                0x8002aec4                SI_EnablePolling
 .text.__si_completetransfer
                0x8002af64      0x1a8 /Programs/devkitpro/libogc/lib/wii/libogc.a(si.o)
 .text.__si_transfernext
                0x8002b10c       0xe0 /Programs/devkitpro/libogc/lib/wii/libogc.a(si.o)
 .text.SI_Transfer
                0x8002b1ec      0x21c /Programs/devkitpro/libogc/lib/wii/libogc.a(si.o)
                0x8002b1ec                SI_Transfer
 .text.SI_GetType
                0x8002b408      0x228 /Programs/devkitpro/libogc/lib/wii/libogc.a(si.o)
                0x8002b408                SI_GetType
 .text.SI_GetTypeAsync
                0x8002b630      0x13c /Programs/devkitpro/libogc/lib/wii/libogc.a(si.o)
                0x8002b630                SI_GetTypeAsync
 .text.__si_interrupthandler
                0x8002b76c      0x24c /Programs/devkitpro/libogc/lib/wii/libogc.a(si.o)
 .text.__si_gettypecallback
                0x8002b9b8      0x268 /Programs/devkitpro/libogc/lib/wii/libogc.a(si.o)
 .text.SI_SetSamplingRate
                0x8002bc20       0xf4 /Programs/devkitpro/libogc/lib/wii/libogc.a(si.o)
                0x8002bc20                SI_SetSamplingRate
 .text.__si_init
                0x8002bd14       0xf8 /Programs/devkitpro/libogc/lib/wii/libogc.a(si.o)
                0x8002bd14                __si_init
 .text.SI_RefreshSamplingRate
                0x8002be0c        0xc /Programs/devkitpro/libogc/lib/wii/libogc.a(si.o)
                0x8002be0c                SI_RefreshSamplingRate
 .text.IPC_GetBufferLo
                0x8002be18        0xc /Programs/devkitpro/libogc/lib/wii/libogc.a(ipc.o)
                0x8002be18                IPC_GetBufferLo
 .text.IPC_GetBufferHi
                0x8002be24        0xc /Programs/devkitpro/libogc/lib/wii/libogc.a(ipc.o)
                0x8002be24                IPC_GetBufferHi
 .text.IPC_SetBufferLo
                0x8002be30       0x1c /Programs/devkitpro/libogc/lib/wii/libogc.a(ipc.o)
                0x8002be30                IPC_SetBufferLo
 .text.__ipc_sendrequest
                0x8002be4c      0x10c /Programs/devkitpro/libogc/lib/wii/libogc.a(ipc.o)
 .text.__ipc_syncrequest
                0x8002bf58       0xe4 /Programs/devkitpro/libogc/lib/wii/libogc.a(ipc.o)
 .text.iosAlloc
                0x8002c03c       0x4c /Programs/devkitpro/libogc/lib/wii/libogc.a(ipc.o)
                0x8002c03c                iosAlloc
 .text.iosFree  0x8002c088       0x44 /Programs/devkitpro/libogc/lib/wii/libogc.a(ipc.o)
                0x8002c088                iosFree
 .text.__ios_ioctlvformat_parse
                0x8002c0cc      0x790 /Programs/devkitpro/libogc/lib/wii/libogc.a(ipc.o)
 .text.__ioctlvfmtCB
                0x8002c85c      0x110 /Programs/devkitpro/libogc/lib/wii/libogc.a(ipc.o)
 .text.__IPC_Init
                0x8002c96c       0x64 /Programs/devkitpro/libogc/lib/wii/libogc.a(ipc.o)
                0x8002c96c                __IPC_Init
 .text.iosCreateHeap
                0x8002c9d0      0x160 /Programs/devkitpro/libogc/lib/wii/libogc.a(ipc.o)
                0x8002c9d0                iosCreateHeap
 .text.__IPC_ClntInit
                0x8002cb30       0x78 /Programs/devkitpro/libogc/lib/wii/libogc.a(ipc.o)
                0x8002cb30                __IPC_ClntInit
 .text.__ipc_interrupthandler
                0x8002cba8      0x320 /Programs/devkitpro/libogc/lib/wii/libogc.a(ipc.o)
 .text.IOS_Write
                0x8002cec8       0xc0 /Programs/devkitpro/libogc/lib/wii/libogc.a(ipc.o)
                0x8002cec8                IOS_Write
 .text.__ipc_asyncrequest
                0x8002cf88      0x110 /Programs/devkitpro/libogc/lib/wii/libogc.a(ipc.o)
 .text.IOS_IoctlvReboot
                0x8002d098      0x1a0 /Programs/devkitpro/libogc/lib/wii/libogc.a(ipc.o)
                0x8002d098                IOS_IoctlvReboot
 .text.IOS_Open
                0x8002d238       0xc8 /Programs/devkitpro/libogc/lib/wii/libogc.a(ipc.o)
                0x8002d238                IOS_Open
 .text.IOS_Read
                0x8002d300       0xc0 /Programs/devkitpro/libogc/lib/wii/libogc.a(ipc.o)
                0x8002d300                IOS_Read
 .text.IOS_CloseAsync
                0x8002d3c0       0x94 /Programs/devkitpro/libogc/lib/wii/libogc.a(ipc.o)
                0x8002d3c0                IOS_CloseAsync
 .text.IOS_Close
                0x8002d454       0x8c /Programs/devkitpro/libogc/lib/wii/libogc.a(ipc.o)
                0x8002d454                IOS_Close
 .text.IOS_IoctlvAsync
                0x8002d4e0      0x1c0 /Programs/devkitpro/libogc/lib/wii/libogc.a(ipc.o)
                0x8002d4e0                IOS_IoctlvAsync
 .text.IOS_Ioctlv
                0x8002d6a0      0x19c /Programs/devkitpro/libogc/lib/wii/libogc.a(ipc.o)
                0x8002d6a0                IOS_Ioctlv
 .text.IOS_IoctlvFormat
                0x8002d83c      0x178 /Programs/devkitpro/libogc/lib/wii/libogc.a(ipc.o)
                0x8002d83c                IOS_IoctlvFormat
 .text.IOS_IoctlAsync
                0x8002d9b4      0x128 /Programs/devkitpro/libogc/lib/wii/libogc.a(ipc.o)
                0x8002d9b4                IOS_IoctlAsync
 .text.IOS_Ioctl
                0x8002dadc      0x100 /Programs/devkitpro/libogc/lib/wii/libogc.a(ipc.o)
                0x8002dadc                IOS_Ioctl
 .text.IOS_Seek
                0x8002dbdc       0xac /Programs/devkitpro/libogc/lib/wii/libogc.a(ipc.o)
                0x8002dbdc                IOS_Seek
 .text.gettick  0x8002dc88       0x10 /Programs/devkitpro/libogc/lib/wii/libogc.a(timesupp.o)
                0x8002dc88                gettick
 .text.gettime  0x8002dc98       0x24 /Programs/devkitpro/libogc/lib/wii/libogc.a(timesupp.o)
                0x8002dc98                gettime
 .text.diff_usec
                0x8002dcbc       0x9c /Programs/devkitpro/libogc/lib/wii/libogc.a(timesupp.o)
                0x8002dcbc                diff_usec
 .text.udelay   0x8002dd58       0x64 /Programs/devkitpro/libogc/lib/wii/libogc.a(timesupp.o)
                0x8002dd58                udelay
 .text.__timesystem_init
                0x8002ddbc       0x40 /Programs/devkitpro/libogc/lib/wii/libogc.a(timesupp.o)
                0x8002ddbc                __timesystem_init
 .text.__libogc_lock_release
                0x8002ddfc       0x3c /Programs/devkitpro/libogc/lib/wii/libogc.a(lock_supp.o)
                0x8002ddfc                __libogc_lock_release
 .text.__libogc_lock_acquire
                0x8002de38       0x3c /Programs/devkitpro/libogc/lib/wii/libogc.a(lock_supp.o)
                0x8002de38                __libogc_lock_acquire
 .text.__libogc_lock_close
                0x8002de74       0x50 /Programs/devkitpro/libogc/lib/wii/libogc.a(lock_supp.o)
                0x8002de74                __libogc_lock_close
 .text.__libogc_lock_init
                0x8002dec4       0x64 /Programs/devkitpro/libogc/lib/wii/libogc.a(lock_supp.o)
                0x8002dec4                __libogc_lock_init
 .text.__libc_create_hook
                0x8002df28       0x10 /Programs/devkitpro/libogc/lib/wii/libogc.a(newlibc.o)
                0x8002df28                __libc_create_hook
 .text.__libc_init
                0x8002df38      0x178 /Programs/devkitpro/libogc/lib/wii/libogc.a(newlibc.o)
                0x8002df38                __libc_init
 .text.__libc_delete_hook
                0x8002e0b0       0xbc /Programs/devkitpro/libogc/lib/wii/libogc.a(newlibc.o)
                0x8002e0b0                __libc_delete_hook
 .text.__libc_start_hook
                0x8002e16c      0x1c0 /Programs/devkitpro/libogc/lib/wii/libogc.a(newlibc.o)
                0x8002e16c                __libc_start_hook
 .text.__usbgecko_init
                0x8002e32c       0x58 /Programs/devkitpro/libogc/lib/wii/libogc.a(usbgecko.o)
 .text.__usbgecko_exi_unlock
                0x8002e384       0x34 /Programs/devkitpro/libogc/lib/wii/libogc.a(usbgecko.o)
 .text.__usb_sendbyte
                0x8002e3b8       0xc8 /Programs/devkitpro/libogc/lib/wii/libogc.a(usbgecko.o)
 .text.usb_sendbuffer
                0x8002e480      0x138 /Programs/devkitpro/libogc/lib/wii/libogc.a(usbgecko.o)
                0x8002e480                usb_sendbuffer
 .text.__usb_checksend
                0x8002e5b8       0xc0 /Programs/devkitpro/libogc/lib/wii/libogc.a(usbgecko.o)
                0x8002e5b8                __usb_checksend
 .text.usb_sendbuffer_safe
                0x8002e678      0x150 /Programs/devkitpro/libogc/lib/wii/libogc.a(usbgecko.o)
                0x8002e678                usb_sendbuffer_safe
 .text.__libogc_sbrk_r
                0x8002e7c8       0xe0 /Programs/devkitpro/libogc/lib/wii/libogc.a(sbrk.o)
                0x8002e7c8                __libogc_sbrk_r
 .text.__libogc_malloc_lock
                0x8002e8a8      0x230 /Programs/devkitpro/libogc/lib/wii/libogc.a(malloc_lock.o)
                0x8002e8a8                __libogc_malloc_lock
 .text.__memlock_init
                0x8002ead8       0x70 /Programs/devkitpro/libogc/lib/wii/libogc.a(malloc_lock.o)
                0x8002ead8                __memlock_init
 .text.__libogc_malloc_unlock
                0x8002eb48       0x70 /Programs/devkitpro/libogc/lib/wii/libogc.a(malloc_lock.o)
                0x8002eb48                __libogc_malloc_unlock
 .text.STM_RegisterEventHandler
                0x8002ebb8       0x14 /Programs/devkitpro/libogc/lib/wii/libogc.a(stm.o)
                0x8002ebb8                STM_RegisterEventHandler
 .text.STM_RebootSystem
                0x8002ebcc       0x70 /Programs/devkitpro/libogc/lib/wii/libogc.a(stm.o)
                0x8002ebcc                STM_RebootSystem
 .text.STM_SetLedMode
                0x8002ec3c       0x60 /Programs/devkitpro/libogc/lib/wii/libogc.a(stm.o)
                0x8002ec3c                STM_SetLedMode
 .text.STM_ShutdownToStandby
                0x8002ec9c       0x70 /Programs/devkitpro/libogc/lib/wii/libogc.a(stm.o)
                0x8002ec9c                STM_ShutdownToStandby
 .text.__STM_ReleaseEventHook
                0x8002ed0c       0x94 /Programs/devkitpro/libogc/lib/wii/libogc.a(stm.o)
                0x8002ed0c                __STM_ReleaseEventHook
 .text.STM_ShutdownToIdle
                0x8002eda0       0x9c /Programs/devkitpro/libogc/lib/wii/libogc.a(stm.o)
                0x8002eda0                STM_ShutdownToIdle
 .text.__STM_SetEventHook
                0x8002ee3c       0xe8 /Programs/devkitpro/libogc/lib/wii/libogc.a(stm.o)
                0x8002ee3c                __STM_SetEventHook
 .text.__STMEventHandler
                0x8002ef24       0x6c /Programs/devkitpro/libogc/lib/wii/libogc.a(stm.o)
 .text.__STM_Close
                0x8002ef90       0x9c /Programs/devkitpro/libogc/lib/wii/libogc.a(stm.o)
                0x8002ef90                __STM_Close
 .text.__STM_Init
                0x8002f02c       0xac /Programs/devkitpro/libogc/lib/wii/libogc.a(stm.o)
                0x8002f02c                __STM_Init
 .text.IOS_GetVersion
                0x8002f0d8       0x54 /Programs/devkitpro/libogc/lib/wii/libogc.a(ios.o)
                0x8002f0d8                IOS_GetVersion
 .text.__IOS_LaunchNewIOS
                0x8002f12c       0xf4 /Programs/devkitpro/libogc/lib/wii/libogc.a(ios.o)
                0x8002f12c                __IOS_LaunchNewIOS
 .text.__IOS_ShutdownSubsystems
                0x8002f220       0x48 /Programs/devkitpro/libogc/lib/wii/libogc.a(ios.o)
                0x8002f220                __IOS_ShutdownSubsystems
 .text.__IOS_InitializeSubsystems
                0x8002f268       0x48 /Programs/devkitpro/libogc/lib/wii/libogc.a(ios.o)
                0x8002f268                __IOS_InitializeSubsystems
 .text.__IOS_InitHeap
                0x8002f2b0       0x70 /Programs/devkitpro/libogc/lib/wii/libogc.a(ios.o)
                0x8002f2b0                __IOS_InitHeap
 .text.IOS_GetPreferredVersion
                0x8002f320      0x100 /Programs/devkitpro/libogc/lib/wii/libogc.a(ios.o)
                0x8002f320                IOS_GetPreferredVersion
 .text.__IOS_LoadStartupIOS
                0x8002f420       0x6c /Programs/devkitpro/libogc/lib/wii/libogc.a(ios.o)
                0x8002f420                __IOS_LoadStartupIOS
 .text.__ES_Reset
                0x8002f48c       0x14 /Programs/devkitpro/libogc/lib/wii/libogc.a(es.o)
                0x8002f48c                __ES_Reset
 .text.ES_NextCert
                0x8002f4a0       0x78 /Programs/devkitpro/libogc/lib/wii/libogc.a(es.o)
                0x8002f4a0                ES_NextCert
 .text.__ES_sanity_check_certlist
                0x8002f518       0x68 /Programs/devkitpro/libogc/lib/wii/libogc.a(es.o)
                0x8002f518                __ES_sanity_check_certlist
 .text.ES_CloseContent
                0x8002f580       0x6c /Programs/devkitpro/libogc/lib/wii/libogc.a(es.o)
                0x8002f580                ES_CloseContent
 .text.ES_SeekContent
                0x8002f5ec       0x78 /Programs/devkitpro/libogc/lib/wii/libogc.a(es.o)
                0x8002f5ec                ES_SeekContent
 .text.ES_ReadContent
                0x8002f664       0x98 /Programs/devkitpro/libogc/lib/wii/libogc.a(es.o)
                0x8002f664                ES_ReadContent
 .text.ES_OpenTitleContent
                0x8002f6fc       0x5c /Programs/devkitpro/libogc/lib/wii/libogc.a(es.o)
                0x8002f6fc                ES_OpenTitleContent
 .text.ES_OpenContent
                0x8002f758       0x50 /Programs/devkitpro/libogc/lib/wii/libogc.a(es.o)
                0x8002f758                ES_OpenContent
 .text.ES_GetStoredTMD
                0x8002f7a8       0xa4 /Programs/devkitpro/libogc/lib/wii/libogc.a(es.o)
                0x8002f7a8                ES_GetStoredTMD
 .text.ES_GetStoredTMDSize
                0x8002f84c       0x88 /Programs/devkitpro/libogc/lib/wii/libogc.a(es.o)
                0x8002f84c                ES_GetStoredTMDSize
 .text.ES_GetTitles
                0x8002f8d4       0x90 /Programs/devkitpro/libogc/lib/wii/libogc.a(es.o)
                0x8002f8d4                ES_GetTitles
 .text.ES_GetNumTitles
                0x8002f964       0x7c /Programs/devkitpro/libogc/lib/wii/libogc.a(es.o)
                0x8002f964                ES_GetNumTitles
 .text.ES_GetTicketViews
                0x8002f9e0       0xa0 /Programs/devkitpro/libogc/lib/wii/libogc.a(es.o)
                0x8002f9e0                ES_GetTicketViews
 .text.ES_GetNumTicketViews
                0x8002fa80       0x88 /Programs/devkitpro/libogc/lib/wii/libogc.a(es.o)
                0x8002fa80                ES_GetNumTicketViews
 .text.ES_GetTitleID
                0x8002fb08       0x84 /Programs/devkitpro/libogc/lib/wii/libogc.a(es.o)
                0x8002fb08                ES_GetTitleID
 .text.ES_LaunchTitle
                0x8002fb8c       0xb8 /Programs/devkitpro/libogc/lib/wii/libogc.a(es.o)
                0x8002fb8c                ES_LaunchTitle
 .text.__ES_Close
                0x8002fc44       0x7c /Programs/devkitpro/libogc/lib/wii/libogc.a(es.o)
                0x8002fc44                __ES_Close
 .text.__ES_Init
                0x8002fcc0       0x84 /Programs/devkitpro/libogc/lib/wii/libogc.a(es.o)
                0x8002fcc0                __ES_Init
 .text.ES_Identify
                0x8002fd44      0x28c /Programs/devkitpro/libogc/lib/wii/libogc.a(es.o)
                0x8002fd44                ES_Identify
 .text._ES_decodepath
                0x8002ffd0      0x33c /Programs/devkitpro/libogc/lib/wii/libogc.a(es.o)
 .text._ES_fillstat
                0x8003030c      0x164 /Programs/devkitpro/libogc/lib/wii/libogc.a(es.o)
 .text._ES_stat_r
                0x80030470       0x64 /Programs/devkitpro/libogc/lib/wii/libogc.a(es.o)
 .text._ES_fstat_r
                0x800304d4       0x8c /Programs/devkitpro/libogc/lib/wii/libogc.a(es.o)
 .text._ES_seek_r
                0x80030560       0xc0 /Programs/devkitpro/libogc/lib/wii/libogc.a(es.o)
 .text._ES_read_r
                0x80030620      0x1a8 /Programs/devkitpro/libogc/lib/wii/libogc.a(es.o)
 .text._ES_close_r
                0x800307c8       0x8c /Programs/devkitpro/libogc/lib/wii/libogc.a(es.o)
 .text._ES_open_r
                0x80030854       0xd0 /Programs/devkitpro/libogc/lib/wii/libogc.a(es.o)
 .text.ISFS_ReadDir
                0x80030924      0x16c /Programs/devkitpro/libogc/lib/wii/libogc.a(isfs.o)
                0x80030924                ISFS_ReadDir
 .text.ISFS_GetFileStats
                0x80030a90       0x4c /Programs/devkitpro/libogc/lib/wii/libogc.a(isfs.o)
                0x80030a90                ISFS_GetFileStats
 .text.ISFS_Close
                0x80030adc       0x34 /Programs/devkitpro/libogc/lib/wii/libogc.a(isfs.o)
                0x80030adc                ISFS_Close
 .text.ISFS_Seek
                0x80030b10       0x20 /Programs/devkitpro/libogc/lib/wii/libogc.a(isfs.o)
                0x80030b10                ISFS_Seek
 .text.ISFS_Read
                0x80030b30       0x40 /Programs/devkitpro/libogc/lib/wii/libogc.a(isfs.o)
                0x80030b30                ISFS_Read
 .text.ISFS_Open
                0x80030b70       0xd0 /Programs/devkitpro/libogc/lib/wii/libogc.a(isfs.o)
                0x80030b70                ISFS_Open
 .text.ISFS_Initialize
                0x80030c40       0x94 /Programs/devkitpro/libogc/lib/wii/libogc.a(isfs.o)
                0x80030c40                ISFS_Initialize
 .text.__usb_bulk_messageCB
                0x80030cd4       0xc8 /Programs/devkitpro/libogc/lib/wii/libogc.a(usb.o)
 .text.__usb_control_messageCB
                0x80030d9c      0x118 /Programs/devkitpro/libogc/lib/wii/libogc.a(usb.o)
 .text.USB_CloseDeviceAsync
                0x80030eb4       0x48 /Programs/devkitpro/libogc/lib/wii/libogc.a(usb.o)
                0x80030eb4                USB_CloseDeviceAsync
 .text.USB_OpenDevice
                0x80030efc       0xd4 /Programs/devkitpro/libogc/lib/wii/libogc.a(usb.o)
                0x80030efc                USB_OpenDevice
 .text.USB_Initialize
                0x80030fd0       0x7c /Programs/devkitpro/libogc/lib/wii/libogc.a(usb.o)
                0x80030fd0                USB_Initialize
 .text.USB_WriteBlkMsgAsync
                0x8003104c      0x1f4 /Programs/devkitpro/libogc/lib/wii/libogc.a(usb.o)
                0x8003104c                USB_WriteBlkMsgAsync
 .text.USB_ReadBlkMsgAsync
                0x80031240      0x1f4 /Programs/devkitpro/libogc/lib/wii/libogc.a(usb.o)
                0x80031240                USB_ReadBlkMsgAsync
 .text.USB_ReadIntrMsgAsync
                0x80031434      0x1f4 /Programs/devkitpro/libogc/lib/wii/libogc.a(usb.o)
                0x80031434                USB_ReadIntrMsgAsync
 .text.USB_WriteCtrlMsgAsync
                0x80031628      0x384 /Programs/devkitpro/libogc/lib/wii/libogc.a(usb.o)
                0x80031628                USB_WriteCtrlMsgAsync
 .text.__CheckARGV
                0x800319ac       0x9c /Programs/devkitpro/libogc/lib/wii/libogc.a(argv.o)
                0x800319ac                __CheckARGV
 .text.__CONF_DecryptTextBuffer
                0x80031a48       0x48 /Programs/devkitpro/libogc/lib/wii/libogc.a(conf.o)
                0x80031a48                __CONF_DecryptTextBuffer
 .text.__CONF_Find
                0x80031a90      0x118 /Programs/devkitpro/libogc/lib/wii/libogc.a(conf.o)
                0x80031a90                __CONF_Find
 .text.CONF_GetLength
                0x80031ba8       0xd4 /Programs/devkitpro/libogc/lib/wii/libogc.a(conf.o)
                0x80031ba8                CONF_GetLength
 .text.CONF_Get
                0x80031c7c      0x13c /Programs/devkitpro/libogc/lib/wii/libogc.a(conf.o)
                0x80031c7c                CONF_Get
 .text.CONF_GetPadDevices
                0x80031db8       0x48 /Programs/devkitpro/libogc/lib/wii/libogc.a(conf.o)
                0x80031db8                CONF_GetPadDevices
 .text.CONF_GetDisplayOffsetH
                0x80031e00       0x64 /Programs/devkitpro/libogc/lib/wii/libogc.a(conf.o)
                0x80031e00                CONF_GetDisplayOffsetH
 .text.CONF_GetSensorBarPosition
                0x80031e64       0x58 /Programs/devkitpro/libogc/lib/wii/libogc.a(conf.o)
                0x80031e64                CONF_GetSensorBarPosition
 .text.CONF_GetIRSensitivity
                0x80031ebc       0x58 /Programs/devkitpro/libogc/lib/wii/libogc.a(conf.o)
                0x80031ebc                CONF_GetIRSensitivity
 .text.CONF_GetEuRGB60
                0x80031f14       0x58 /Programs/devkitpro/libogc/lib/wii/libogc.a(conf.o)
                0x80031f14                CONF_GetEuRGB60
 .text.CONF_GetProgressiveScan
                0x80031f6c       0x58 /Programs/devkitpro/libogc/lib/wii/libogc.a(conf.o)
                0x80031f6c                CONF_GetProgressiveScan
 .text.CONF_GetIdleLedMode
                0x80031fc4       0x5c /Programs/devkitpro/libogc/lib/wii/libogc.a(conf.o)
                0x80031fc4                CONF_GetIdleLedMode
 .text.CONF_GetShutdownMode
                0x80032020       0x5c /Programs/devkitpro/libogc/lib/wii/libogc.a(conf.o)
                0x80032020                CONF_GetShutdownMode
 .text.__CONF_GetTxt
                0x8003207c      0x19c /Programs/devkitpro/libogc/lib/wii/libogc.a(conf.o)
                0x8003207c                __CONF_GetTxt
 .text.CONF_GetVideo
                0x80032218       0xac /Programs/devkitpro/libogc/lib/wii/libogc.a(conf.o)
                0x80032218                CONF_GetVideo
 .text.CONF_Init
                0x800322c4      0x138 /Programs/devkitpro/libogc/lib/wii/libogc.a(conf.o)
                0x800322c4                CONF_Init
 .text.__CalcChecksum
                0x800323fc       0x3c /Programs/devkitpro/libogc/lib/wii/libogc.a(wiilaunch.o)
 .text.__SetChecksum
                0x80032438       0x30 /Programs/devkitpro/libogc/lib/wii/libogc.a(wiilaunch.o)
 .text.__ValidChecksum
                0x80032468       0x38 /Programs/devkitpro/libogc/lib/wii/libogc.a(wiilaunch.o)
 .text.__WII_WriteStateFlags
                0x800324a0       0x9c /Programs/devkitpro/libogc/lib/wii/libogc.a(wiilaunch.o)
 .text.WII_LaunchTitle
                0x8003253c       0xcc /Programs/devkitpro/libogc/lib/wii/libogc.a(wiilaunch.o)
                0x8003253c                WII_LaunchTitle
 .text.WII_ReturnToMenu
                0x80032608       0x74 /Programs/devkitpro/libogc/lib/wii/libogc.a(wiilaunch.o)
                0x80032608                WII_ReturnToMenu
 .text.WII_Initialize
                0x8003267c      0x204 /Programs/devkitpro/libogc/lib/wii/libogc.a(wiilaunch.o)
                0x8003267c                WII_Initialize
 .text.__lwp_priority_init
                0x80032880       0x34 /Programs/devkitpro/libogc/lib/wii/libogc.a(lwp_priority.o)
                0x80032880                __lwp_priority_init
 .text.__lwp_threadqueue_extractpriority
                0x800328b4      0x16c /Programs/devkitpro/libogc/lib/wii/libogc.a(lwp_threadq.o)
                0x800328b4                __lwp_threadqueue_extractpriority
 .text.__lwp_threadqueue_extractfifo
                0x80032a20       0xe8 /Programs/devkitpro/libogc/lib/wii/libogc.a(lwp_threadq.o)
                0x80032a20                __lwp_threadqueue_extractfifo
 .text.__lwp_threadqueue_extract
                0x80032b08       0x1c /Programs/devkitpro/libogc/lib/wii/libogc.a(lwp_threadq.o)
                0x80032b08                __lwp_threadqueue_extract
 .text.__lwp_threadqueue_extractproxy
                0x80032b24       0x3c /Programs/devkitpro/libogc/lib/wii/libogc.a(lwp_threadq.o)
                0x80032b24                __lwp_threadqueue_extractproxy
 .text.__lwp_threadqueue_timeout
                0x80032b60       0x8c /Programs/devkitpro/libogc/lib/wii/libogc.a(lwp_threadq.o)
 .text.__lwp_threadqueue_dequeuepriority
                0x80032bec      0x210 /Programs/devkitpro/libogc/lib/wii/libogc.a(lwp_threadq.o)
                0x80032bec                __lwp_threadqueue_dequeuepriority
 .text.__lwp_threadqueue_enqueuepriority
                0x80032dfc      0x3b8 /Programs/devkitpro/libogc/lib/wii/libogc.a(lwp_threadq.o)
                0x80032dfc                __lwp_threadqueue_enqueuepriority
 .text.__lwp_threadqueue_dequeuefifo
                0x800331b4      0x14c /Programs/devkitpro/libogc/lib/wii/libogc.a(lwp_threadq.o)
                0x800331b4                __lwp_threadqueue_dequeuefifo
 .text.__lwp_threadqueue_dequeue
                0x80033300       0x24 /Programs/devkitpro/libogc/lib/wii/libogc.a(lwp_threadq.o)
                0x80033300                __lwp_threadqueue_dequeue
 .text.__lwp_threadqueue_flush
                0x80033324       0x4c /Programs/devkitpro/libogc/lib/wii/libogc.a(lwp_threadq.o)
                0x80033324                __lwp_threadqueue_flush
 .text.__lwp_threadqueue_enqueuefifo
                0x80033370      0x128 /Programs/devkitpro/libogc/lib/wii/libogc.a(lwp_threadq.o)
                0x80033370                __lwp_threadqueue_enqueuefifo
 .text.__lwp_threadqueue_enqueue
                0x80033498      0x13c /Programs/devkitpro/libogc/lib/wii/libogc.a(lwp_threadq.o)
                0x80033498                __lwp_threadqueue_enqueue
 .text.__lwp_threadqueue_init
                0x800335d4       0x88 /Programs/devkitpro/libogc/lib/wii/libogc.a(lwp_threadq.o)
                0x800335d4                __lwp_threadqueue_init
 .text.__lwp_mutex_flush
                0x8003365c       0x20 /Programs/devkitpro/libogc/lib/wii/libogc.a(lwp_mutex.o)
                0x8003365c                __lwp_mutex_flush
 .text.__lwp_mutex_initialize
                0x8003367c       0xe8 /Programs/devkitpro/libogc/lib/wii/libogc.a(lwp_mutex.o)
                0x8003367c                __lwp_mutex_initialize
 .text.__lwp_mutex_seize_irq_blocking
                0x80033764       0xec /Programs/devkitpro/libogc/lib/wii/libogc.a(lwp_mutex.o)
                0x80033764                __lwp_mutex_seize_irq_blocking
 .text.__lwp_mutex_surrender
                0x80033850      0x150 /Programs/devkitpro/libogc/lib/wii/libogc.a(lwp_mutex.o)
                0x80033850                __lwp_mutex_surrender
 .text.__exception_sethandler
                0x800339a0       0x14 /Programs/devkitpro/libogc/lib/wii/libogc.a(exception.o)
                0x800339a0                __exception_sethandler
 .text.__libogc_exit
                0x800339b4       0x38 /Programs/devkitpro/libogc/lib/wii/libogc.a(exception.o)
                0x800339b4                __libogc_exit
 .text.c_default_exceptionhandler
                0x800339ec      0x3c4 /Programs/devkitpro/libogc/lib/wii/libogc.a(exception.o)
                0x800339ec                c_default_exceptionhandler
 .text.__exception_load
                0x80033db0       0xa4 /Programs/devkitpro/libogc/lib/wii/libogc.a(exception.o)
                0x80033db0                __exception_load
 .text.__exception_init
                0x80033e54       0xf4 /Programs/devkitpro/libogc/lib/wii/libogc.a(exception.o)
                0x80033e54                __exception_init
 .text.__systemcall_init
                0x80033f48       0x20 /Programs/devkitpro/libogc/lib/wii/libogc.a(exception.o)
                0x80033f48                __systemcall_init
 .text.__lwp_sema_init
                0x80033f68       0x30 /Programs/devkitpro/libogc/lib/wii/libogc.a(semaphore.o)
                0x80033f68                __lwp_sema_init
 .text.__PADDisableRecalibration
                0x80033f98       0x5c /Programs/devkitpro/libogc/lib/wii/libogc.a(pad.o)
                0x80033f98                __PADDisableRecalibration
 .text.PAD_ButtonsDown
                0x80033ff4       0x34 /Programs/devkitpro/libogc/lib/wii/libogc.a(pad.o)
                0x80033ff4                PAD_ButtonsDown
 .text.__pad_updateorigin
                0x80034028       0xa4 /Programs/devkitpro/libogc/lib/wii/libogc.a(pad.o)
 .text.__pad_doreset
                0x800340cc       0x74 /Programs/devkitpro/libogc/lib/wii/libogc.a(pad.o)
 .text.PAD_Reset
                0x80034140      0x12c /Programs/devkitpro/libogc/lib/wii/libogc.a(pad.o)
                0x80034140                PAD_Reset
 .text.__pad_enable
                0x8003426c       0x68 /Programs/devkitpro/libogc/lib/wii/libogc.a(pad.o)
 .text.__pad_typeandstatuscallback
                0x800342d4      0x194 /Programs/devkitpro/libogc/lib/wii/libogc.a(pad.o)
 .text.__pad_origincallback
                0x80034468       0x40 /Programs/devkitpro/libogc/lib/wii/libogc.a(pad.o)
 .text.__pad_probecallback
                0x800344a8       0x54 /Programs/devkitpro/libogc/lib/wii/libogc.a(pad.o)
 .text.__pad_disable
                0x800344fc       0xd0 /Programs/devkitpro/libogc/lib/wii/libogc.a(pad.o)
 .text.PAD_Read
                0x800345cc      0x2f4 /Programs/devkitpro/libogc/lib/wii/libogc.a(pad.o)
                0x800345cc                PAD_Read
 .text.PAD_ScanPads
                0x800348c0      0x17c /Programs/devkitpro/libogc/lib/wii/libogc.a(pad.o)
                0x800348c0                PAD_ScanPads
 .text.__pad_receivecheckcallback
                0x80034a3c       0xc0 /Programs/devkitpro/libogc/lib/wii/libogc.a(pad.o)
 .text.__pad_originupdatecallback
                0x80034afc       0x88 /Programs/devkitpro/libogc/lib/wii/libogc.a(pad.o)
 .text.EXI_Sync
                0x80034b84       0xec /Programs/devkitpro/libogc/lib/wii/libogc.a(exi.o)
                0x80034b84                EXI_Sync
 .text.__exi_irq_handler
                0x80034c70       0x74 /Programs/devkitpro/libogc/lib/wii/libogc.a(exi.o)
 .text.EXI_Detach
                0x80034ce4       0xb0 /Programs/devkitpro/libogc/lib/wii/libogc.a(exi.o)
                0x80034ce4                EXI_Detach
 .text.__exi_probe
                0x80034d94      0x21c /Programs/devkitpro/libogc/lib/wii/libogc.a(exi.o)
 .text.EXI_Select
                0x80034fb0      0x1d8 /Programs/devkitpro/libogc/lib/wii/libogc.a(exi.o)
                0x80034fb0                EXI_Select
 .text.EXI_Imm  0x80035188      0x1b0 /Programs/devkitpro/libogc/lib/wii/libogc.a(exi.o)
                0x80035188                EXI_Imm
 .text.EXI_ImmEx
                0x80035338       0xd4 /Programs/devkitpro/libogc/lib/wii/libogc.a(exi.o)
                0x80035338                EXI_ImmEx
 .text.EXI_Deselect
                0x8003540c      0x14c /Programs/devkitpro/libogc/lib/wii/libogc.a(exi.o)
                0x8003540c                EXI_Deselect
 .text.__exi_attach
                0x80035558      0x11c /Programs/devkitpro/libogc/lib/wii/libogc.a(exi.o)
 .text.EXI_Lock
                0x80035674      0x210 /Programs/devkitpro/libogc/lib/wii/libogc.a(exi.o)
                0x80035674                EXI_Lock
 .text.EXI_Dma  0x80035884      0x164 /Programs/devkitpro/libogc/lib/wii/libogc.a(exi.o)
                0x80035884                EXI_Dma
 .text.__ext_irq_handler
                0x800359e8       0xbc /Programs/devkitpro/libogc/lib/wii/libogc.a(exi.o)
 .text.__tc_irq_handler
                0x80035aa4      0x11c /Programs/devkitpro/libogc/lib/wii/libogc.a(exi.o)
 .text.EXI_Unlock
                0x80035bc0      0x26c /Programs/devkitpro/libogc/lib/wii/libogc.a(exi.o)
                0x80035bc0                EXI_Unlock
 .text.EXI_GetID
                0x80035e2c      0x248 /Programs/devkitpro/libogc/lib/wii/libogc.a(exi.o)
                0x80035e2c                EXI_GetID
 .text.EXI_ProbeReset
                0x80036074       0x7c /Programs/devkitpro/libogc/lib/wii/libogc.a(exi.o)
                0x80036074                EXI_ProbeReset
 .text.__exi_init
                0x800360f0      0x18c /Programs/devkitpro/libogc/lib/wii/libogc.a(exi.o)
                0x800360f0                __exi_init
 .text.__unlocked_handler
                0x8003627c       0x28 /Programs/devkitpro/libogc/lib/wii/libogc.a(exi.o)
 .text.LWP_MutexInit
                0x800362a4      0x10c /Programs/devkitpro/libogc/lib/wii/libogc.a(mutex.o)
                0x800362a4                LWP_MutexInit
 .text.__lwp_mutex_init
                0x800363b0       0x30 /Programs/devkitpro/libogc/lib/wii/libogc.a(mutex.o)
                0x800363b0                __lwp_mutex_init
 .text.LWP_MutexDestroy
                0x800363e0      0x108 /Programs/devkitpro/libogc/lib/wii/libogc.a(mutex.o)
                0x800363e0                LWP_MutexDestroy
 .text.__lwp_mutex_locksupp
                0x800364e8      0x288 /Programs/devkitpro/libogc/lib/wii/libogc.a(mutex.o)
 .text.LWP_MutexLock
                0x80036770        0xc /Programs/devkitpro/libogc/lib/wii/libogc.a(mutex.o)
                0x80036770                LWP_MutexLock
 .text.LWP_MutexUnlock
                0x8003677c       0x90 /Programs/devkitpro/libogc/lib/wii/libogc.a(mutex.o)
                0x8003677c                LWP_MutexUnlock
 .text.skip_atoi
                0x8003680c       0x4c /Programs/devkitpro/libogc/lib/wii/libogc.a(kprintf.o)
 .text.number   0x80036858      0x2c0 /Programs/devkitpro/libogc/lib/wii/libogc.a(kprintf.o)
 .text.kvsprintf
                0x80036b18      0x684 /Programs/devkitpro/libogc/lib/wii/libogc.a(kprintf.o)
                0x80036b18                kvsprintf
 .text.kprintf  0x8003719c       0xac /Programs/devkitpro/libogc/lib/wii/libogc.a(kprintf.o)
                0x8003719c                kprintf
 *(.gnu.warning)
 *(.gnu.linkonce.t.*)
                0x80037260                . = ALIGN (0x20)
 *fill*         0x80037248       0x18 00000000

.fini           0x80037260       0x20
 *(.fini)
 .fini          0x80037260        0xc /Programs/devkitpro/devkitPPC/bin/../lib/gcc/powerpc-gekko/4.2.4/ecrti.o
                0x80037260                __fini
 .fini          0x8003726c        0x4 /Programs/devkitpro/devkitPPC/bin/../lib/gcc/powerpc-gekko/4.2.4/crtbegin.o
 .fini          0x80037270       0x10 /Programs/devkitpro/devkitPPC/bin/../lib/gcc/powerpc-gekko/4.2.4/ecrtn.o
                0x80037280                . = ALIGN (0x20)
                0x80037280                PROVIDE (__etext, .)
                0x80037280                PROVIDE (_etext, .)
                0x80037280                PROVIDE (etext, .)

.rodata         0x80037280     0x29e0
 *(.rodata)
 .rodata        0x80037280       0x5c /Programs/devkitpro/libogc/lib/wii/libisfs.a(isfs.o)
 *fill*         0x800372dc        0x4 00
 .rodata        0x800372e0      0xa04 /Programs/devkitpro/libogc/lib/wii/libisfs.a(certs.bin.o)
                0x800372e0                certs_bin
                0x80037ce0                certs_bin_size
                0x80037ce0                certs_bin_end
 *fill*         0x80037ce4       0x1c 00
 .rodata        0x80037d00      0x2a8 /Programs/devkitpro/libogc/lib/wii/libisfs.a(su_tik.bin.o)
                0x80037d00                su_tik_bin
                0x80037fa4                su_tik_bin_size
                0x80037fa4                su_tik_bin_end
 *fill*         0x80037fa8       0x18 00
 .rodata        0x80037fc0      0x20c /Programs/devkitpro/libogc/lib/wii/libisfs.a(su_tmd.bin.o)
                0x800381c8                su_tmd_bin_end
                0x80037fc0                su_tmd_bin
                0x800381c8                su_tmd_bin_size
 .rodata        0x800381cc       0x3a /Programs/devkitpro/libogc/lib/wii/libwiiuse.a(ir.o)
 *fill*         0x80038206        0x2 00
 .rodata        0x80038208       0x24 /Programs/devkitpro/libogc/lib/wii/libogc.a(newlibc.o)
 *fill*         0x8003822c        0x4 00
 .rodata        0x80038230       0x20 /Programs/devkitpro/devkitPPC/bin/../lib/gcc/powerpc-gekko/4.2.4/../../../../powerpc-gekko/lib/libm.a(lib_a-s_atangent.o)
 .rodata        0x80038250       0x10 /Programs/devkitpro/devkitPPC/bin/../lib/gcc/powerpc-gekko/4.2.4/../../../../powerpc-gekko/lib/libm.a(lib_a-sf_atangent.o)
 .rodata        0x80038260       0x5c /Programs/devkitpro/devkitPPC/bin/../lib/gcc/powerpc-gekko/4.2.4/../../../../powerpc-gekko/lib/libsysbase.a(iosupport.o)
                0x80038260                dotab_stdnull
 .rodata        0x800382bc      0x101 /Programs/devkitpro/devkitPPC/bin/../lib/gcc/powerpc-gekko/4.2.4/../../../../powerpc-gekko/lib/libc.a(lib_a-ctype_.o)
                0x800382bc                _ctype_
 *fill*         0x800383bd        0x3 00
 .rodata        0x800383c0      0x184 /Programs/devkitpro/devkitPPC/bin/../lib/gcc/powerpc-gekko/4.2.4/../../../../powerpc-gekko/lib/libc.a(lib_a-vfprintf.o)
 .rodata        0x80038544       0x18 /Programs/devkitpro/devkitPPC/bin/../lib/gcc/powerpc-gekko/4.2.4/../../../../powerpc-gekko/lib/libc.a(lib_a-dtoa.o)
 .rodata        0x8003855c       0xb8 /Programs/devkitpro/devkitPPC/bin/../lib/gcc/powerpc-gekko/4.2.4/../../../../powerpc-gekko/lib/libc.a(lib_a-locale.o)
 .rodata        0x80038614       0xa8 /Programs/devkitpro/devkitPPC/bin/../lib/gcc/powerpc-gekko/4.2.4/../../../../powerpc-gekko/lib/libc.a(lib_a-mbtowc_r.o)
 *fill*         0x800386bc        0x4 00
 .rodata        0x800386c0      0x128 /Programs/devkitpro/devkitPPC/bin/../lib/gcc/powerpc-gekko/4.2.4/../../../../powerpc-gekko/lib/libc.a(lib_a-mprec.o)
                0x800387c0                __mprec_tinytens
                0x800386c0                __mprec_tens
                0x80038798                __mprec_bigtens
 *(.rodata.*)
 .rodata.str1.4
                0x800387e8      0x16e main.o
 *fill*         0x80038956        0x2 00
 .rodata.str1.4
                0x80038958       0x73 /Programs/devkitpro/libogc/lib/wii/libmii.a(mii.o)
 *fill*         0x800389cb        0x1 00
 .rodata.str1.4
                0x800389cc       0x1e /Programs/devkitpro/libogc/lib/wii/libisfs.a(isfs.o)
                                 0x22 (size before relaxing)
 *fill*         0x800389ea        0x2 00
 .rodata.cst4   0x800389ec       0x10 /Programs/devkitpro/libogc/lib/wii/libwiiuse.a(wpad.o)
 .rodata.cst4   0x800389fc       0x20 /Programs/devkitpro/libogc/lib/wii/libwiiuse.a(dynamics.o)
                                 0x28 (size before relaxing)
 .rodata.wiiuse_set_ir_sensitivity
                0x80038a1c       0x18 /Programs/devkitpro/libogc/lib/wii/libwiiuse.a(ir.o)
 .rodata.cst4   0x80038a34       0x70 /Programs/devkitpro/libogc/lib/wii/libwiiuse.a(ir.o)
                                 0x8c (size before relaxing)
 .rodata.str1.4
                0x80038aa4       0x41 /Programs/devkitpro/libogc/lib/wii/libwiiuse.a(ir.o)
 *fill*         0x80038ae5        0x3 00
 .rodata.cst4   0x80038ae8        0x4 /Programs/devkitpro/libogc/lib/wii/libwiiuse.a(wiiuse.o)
 .rodata.parse_event
                0x80038aec       0x60 /Programs/devkitpro/libogc/lib/wii/libwiiuse.a(events.o)
 .rodata.str1.4
                0x80038b4c       0x39 /Programs/devkitpro/libogc/lib/wii/libwiiuse.a(events.o)
 *fill*         0x80038b85        0x3 00
 .rodata.str1.4
                0x80038b88       0x70 /Programs/devkitpro/libogc/lib/wii/libbte.a(bte.o)
                                 0x74 (size before relaxing)
 .rodata.hci_event_handler
                0x80038bf8       0x64 /Programs/devkitpro/libogc/lib/wii/libbte.a(hci.o)
 .rodata.str1.4
                0x80038c5c       0x28 /Programs/devkitpro/libogc/lib/wii/libbte.a(hci.o)
 .rodata.l2cap_process_sig
                0x80038c84       0x28 /Programs/devkitpro/libogc/lib/wii/libbte.a(l2cap.o)
 .rodata.str1.4
                0x80038cac        0x8 /Programs/devkitpro/libogc/lib/wii/libbte.a(physbusif.o)
 .rodata.__console_write
                0x80038cb4       0xec /Programs/devkitpro/libogc/lib/wii/libogc.a(console.o)
 .rodata.color_table
                0x80038da0       0x40 /Programs/devkitpro/libogc/lib/wii/libogc.a(console.o)
                0x80038da0                color_table
 .rodata.dotab_stdout
                0x80038de0       0x5c /Programs/devkitpro/libogc/lib/wii/libogc.a(console.o)
                0x80038de0                dotab_stdout
 .rodata.str1.4
                0x80038e3c        0x7 /Programs/devkitpro/libogc/lib/wii/libogc.a(console.o)
 *fill*         0x80038e43        0x1 00
 .rodata._irqPrio
                0x80038e44       0x30 /Programs/devkitpro/libogc/lib/wii/libogc.a(irq.o)
 .rodata.__gettiming
                0x80038e74       0x58 /Programs/devkitpro/libogc/lib/wii/libogc.a(video.o)
 .rodata.C.34.7301
                0x80038ecc       0x21 /Programs/devkitpro/libogc/lib/wii/libogc.a(video.o)
 *fill*         0x80038eed        0x1 00
 .rodata.video_timing
                0x80038eee      0x17c /Programs/devkitpro/libogc/lib/wii/libogc.a(video.o)
 *fill*         0x8003906a        0x2 00
 .rodata.SYS_ResetSystem
                0x8003906c       0x1c /Programs/devkitpro/libogc/lib/wii/libogc.a(system.o)
 .rodata.str1.4
                0x80039088       0x65 /Programs/devkitpro/libogc/lib/wii/libogc.a(system.o)
 *fill*         0x800390ed        0x3 00
 .rodata.__ios_ioctlvformat_parse
                0x800390f0      0x128 /Programs/devkitpro/libogc/lib/wii/libogc.a(ipc.o)
 .rodata.str1.4
                0x80039218        0x2 /Programs/devkitpro/libogc/lib/wii/libogc.a(newlibc.o)
 *fill*         0x8003921a        0x2 00
 .rodata.str1.4
                0x8003921c       0x40 /Programs/devkitpro/libogc/lib/wii/libogc.a(ios.o)
 .rodata.dotab_es
                0x8003925c       0x5c /Programs/devkitpro/libogc/lib/wii/libogc.a(es.o)
 .rodata.str1.4
                0x800392b8       0x83 /Programs/devkitpro/libogc/lib/wii/libogc.a(es.o)
                                 0x87 (size before relaxing)
 *fill*         0x8003933b        0x1 00
 .rodata.str1.4
                0x8003933c       0x1a /Programs/devkitpro/libogc/lib/wii/libogc.a(usb.o)
 *fill*         0x80039356        0x2 00
 .rodata.CONF_GetLength
                0x80039358       0x20 /Programs/devkitpro/libogc/lib/wii/libogc.a(conf.o)
 .rodata.CONF_Get
                0x80039378       0x20 /Programs/devkitpro/libogc/lib/wii/libogc.a(conf.o)
 *fill*         0x80039398        0x8 00
 .rodata.__conf_file
                0x800393a0       0x15 /Programs/devkitpro/libogc/lib/wii/libogc.a(conf.o)
 *fill*         0x800393b5        0x3 00
 .rodata.str1.4
                0x800393b8      0x111 /Programs/devkitpro/libogc/lib/wii/libogc.a(conf.o)
 *fill*         0x800394c9       0x17 00
 .rodata.__conf_txt_file
                0x800394e0       0x2a /Programs/devkitpro/libogc/lib/wii/libogc.a(conf.o)
 *fill*         0x8003950a        0x2 00
 .rodata.exception_location
                0x8003950c       0x3c /Programs/devkitpro/libogc/lib/wii/libogc.a(exception.o)
 .rodata.str1.4
                0x80039548      0x2c4 /Programs/devkitpro/libogc/lib/wii/libogc.a(exception.o)
                                0x2c8 (size before relaxing)
 .rodata.exception_name
                0x8003980c       0x3c /Programs/devkitpro/libogc/lib/wii/libogc.a(exception.o)
 .rodata.cst4   0x80039848        0x4 /Programs/devkitpro/libogc/lib/wii/libogc.a(pad.o)
 .rodata.kvsprintf
                0x8003984c      0x194 /Programs/devkitpro/libogc/lib/wii/libogc.a(kprintf.o)
 .rodata.str1.4
                0x800399e0       0x57 /Programs/devkitpro/libogc/lib/wii/libogc.a(kprintf.o)
 *fill*         0x80039a37        0x1 00
 .rodata.cst8   0x80039a38        0x8 /Programs/devkitpro/devkitPPC/bin/../lib/gcc/powerpc-gekko/4.2.4/../../../../powerpc-gekko/lib/libm.a(lib_a-s_atan2.o)
 .rodata.cst4   0x00000000        0x8 /Programs/devkitpro/devkitPPC/bin/../lib/gcc/powerpc-gekko/4.2.4/../../../../powerpc-gekko/lib/libm.a(lib_a-s_atangent.o)
 .rodata.cst8   0x80039a40       0x68 /Programs/devkitpro/devkitPPC/bin/../lib/gcc/powerpc-gekko/4.2.4/../../../../powerpc-gekko/lib/libm.a(lib_a-s_atangent.o)
                                 0x70 (size before relaxing)
 .rodata.cst8   0x00000000        0x8 /Programs/devkitpro/devkitPPC/bin/../lib/gcc/powerpc-gekko/4.2.4/../../../../powerpc-gekko/lib/libm.a(lib_a-s_fabs.o)
 .rodata.cst8   0x00000000        0x8 /Programs/devkitpro/devkitPPC/bin/../lib/gcc/powerpc-gekko/4.2.4/../../../../powerpc-gekko/lib/libm.a(lib_a-s_numtest.o)
 .rodata.cst4   0x00000000        0x8 /Programs/devkitpro/devkitPPC/bin/../lib/gcc/powerpc-gekko/4.2.4/../../../../powerpc-gekko/lib/libm.a(lib_a-s_sine.o)
 .rodata.cst8   0x80039aa8       0x50 /Programs/devkitpro/devkitPPC/bin/../lib/gcc/powerpc-gekko/4.2.4/../../../../powerpc-gekko/lib/libm.a(lib_a-s_sine.o)
                                 0x60 (size before relaxing)
 .rodata.cst4   0x00000000        0x4 /Programs/devkitpro/devkitPPC/bin/../lib/gcc/powerpc-gekko/4.2.4/../../../../powerpc-gekko/lib/libm.a(lib_a-s_sqrt.o)
 .rodata.cst8   0x80039af8       0x18 /Programs/devkitpro/devkitPPC/bin/../lib/gcc/powerpc-gekko/4.2.4/../../../../powerpc-gekko/lib/libm.a(lib_a-s_sqrt.o)
                                 0x20 (size before relaxing)
 .rodata.cst4   0x80039b10        0x4 /Programs/devkitpro/devkitPPC/bin/../lib/gcc/powerpc-gekko/4.2.4/../../../../powerpc-gekko/lib/libm.a(lib_a-sf_atan.o)
                                  0x8 (size before relaxing)
 .rodata.cst4   0x00000000        0x4 /Programs/devkitpro/devkitPPC/bin/../lib/gcc/powerpc-gekko/4.2.4/../../../../powerpc-gekko/lib/libm.a(lib_a-sf_atan2.o)
 .rodata.cst4   0x80039b14       0x18 /Programs/devkitpro/devkitPPC/bin/../lib/gcc/powerpc-gekko/4.2.4/../../../../powerpc-gekko/lib/libm.a(lib_a-sf_atangent.o)
                                 0x28 (size before relaxing)
 .rodata.cst8   0x00000000        0x8 /Programs/devkitpro/devkitPPC/bin/../lib/gcc/powerpc-gekko/4.2.4/../../../../powerpc-gekko/lib/libm.a(lib_a-sf_atangent.o)
 .rodata.cst4   0x00000000        0x4 /Programs/devkitpro/devkitPPC/bin/../lib/gcc/powerpc-gekko/4.2.4/../../../../powerpc-gekko/lib/libm.a(lib_a-sf_fabs.o)
 .rodata.cst4   0x00000000        0x4 /Programs/devkitpro/devkitPPC/bin/../lib/gcc/powerpc-gekko/4.2.4/../../../../powerpc-gekko/lib/libm.a(lib_a-sf_numtest.o)
 .rodata.cst4   0x80039b2c       0x18 /Programs/devkitpro/devkitPPC/bin/../lib/gcc/powerpc-gekko/4.2.4/../../../../powerpc-gekko/lib/libm.a(lib_a-sf_sine.o)
                                 0x28 (size before relaxing)
 .rodata.cst8   0x00000000        0x8 /Programs/devkitpro/devkitPPC/bin/../lib/gcc/powerpc-gekko/4.2.4/../../../../powerpc-gekko/lib/libm.a(lib_a-sf_sine.o)
 .rodata.cst4   0x00000000        0x8 /Programs/devkitpro/devkitPPC/bin/../lib/gcc/powerpc-gekko/4.2.4/../../../../powerpc-gekko/lib/libm.a(lib_a-sf_sqrt.o)
 .rodata.cst8   0x00000000       0x18 /Programs/devkitpro/devkitPPC/bin/../lib/gcc/powerpc-gekko/4.2.4/../../../../powerpc-gekko/lib/libm.a(lib_a-sf_sqrt.o)
 .rodata.cst4   0x00000000        0x4 /Programs/devkitpro/devkitPPC/bin/../lib/gcc/powerpc-gekko/4.2.4/../../../../powerpc-gekko/lib/libm.a(lib_a-sf_ldexp.o)
 .rodata.str1.4
                0x80039b44        0xf /Programs/devkitpro/devkitPPC/bin/../lib/gcc/powerpc-gekko/4.2.4/../../../../powerpc-gekko/lib/libsysbase.a(abort.o)
 *fill*         0x80039b53        0x1 00
 .rodata.str1.4
                0x80039b54        0x8 /Programs/devkitpro/devkitPPC/bin/../lib/gcc/powerpc-gekko/4.2.4/../../../../powerpc-gekko/lib/libsysbase.a(iosupport.o)
 .rodata.str1.4
                0x00000000        0x2 /Programs/devkitpro/devkitPPC/bin/../lib/gcc/powerpc-gekko/4.2.4/../../../../powerpc-gekko/lib/libc.a(lib_a-impure.o)
 .rodata.str1.4
                0x00000000        0x2 /Programs/devkitpro/devkitPPC/bin/../lib/gcc/powerpc-gekko/4.2.4/../../../../powerpc-gekko/lib/libc.a(lib_a-puts.o)
 .rodata.cst4   0x80039b5c       0x18 /Programs/devkitpro/devkitPPC/bin/../lib/gcc/powerpc-gekko/4.2.4/../../../../powerpc-gekko/lib/libc.a(lib_a-vfprintf.o)
 .rodata.cst8   0x00000000        0x8 /Programs/devkitpro/devkitPPC/bin/../lib/gcc/powerpc-gekko/4.2.4/../../../../powerpc-gekko/lib/libc.a(lib_a-vfprintf.o)
 .rodata.str1.4
                0x80039b74       0x5a /Programs/devkitpro/devkitPPC/bin/../lib/gcc/powerpc-gekko/4.2.4/../../../../powerpc-gekko/lib/libc.a(lib_a-vfprintf.o)
                                 0x5e (size before relaxing)
 *fill*         0x80039bce        0x2 00
 .rodata.str1.4
                0x80039bd0       0x1e /Programs/devkitpro/devkitPPC/bin/../lib/gcc/powerpc-gekko/4.2.4/../../../../powerpc-gekko/lib/libc.a(lib_a-wctomb_r.o)
 *fill*         0x80039bee        0x2 00
 .rodata.cst4   0x80039bf0        0xc /Programs/devkitpro/devkitPPC/bin/../lib/gcc/powerpc-gekko/4.2.4/../../../../powerpc-gekko/lib/libc.a(lib_a-dtoa.o)
                                 0x20 (size before relaxing)
 *fill*         0x80039bfc        0x4 00
 .rodata.cst8   0x80039c00       0x18 /Programs/devkitpro/devkitPPC/bin/../lib/gcc/powerpc-gekko/4.2.4/../../../../powerpc-gekko/lib/libc.a(lib_a-dtoa.o)
                                 0x20 (size before relaxing)
 .rodata.str1.4
                0x80039c18       0x10 /Programs/devkitpro/devkitPPC/bin/../lib/gcc/powerpc-gekko/4.2.4/../../../../powerpc-gekko/lib/libc.a(lib_a-dtoa.o)
                                 0x12 (size before relaxing)
 .rodata.str1.4
                0x80039c28       0x38 /Programs/devkitpro/devkitPPC/bin/../lib/gcc/powerpc-gekko/4.2.4/../../../../powerpc-gekko/lib/libc.a(lib_a-locale.o)
                                 0x62 (size before relaxing)
 .rodata.str1.4
                0x00000000       0x1e /Programs/devkitpro/devkitPPC/bin/../lib/gcc/powerpc-gekko/4.2.4/../../../../powerpc-gekko/lib/libc.a(lib_a-mbtowc_r.o)
 .rodata.cst4   0x00000000        0x8 /Programs/devkitpro/devkitPPC/bin/../lib/gcc/powerpc-gekko/4.2.4/../../../../powerpc-gekko/lib/libc.a(lib_a-mprec.o)
 *(.gnu.linkonce.r.*)

.eh_frame_hdr   0x80039c60       0x1c
 .eh_frame_hdr  0x80039c60       0x1c /Programs/devkitpro/devkitPPC/bin/../lib/gcc/powerpc-gekko/4.2.4/libgcc.a(_udivdi3.o)

.rodata1
 *(.rodata1)

.sdata2         0x80039c7c       0x14
 *(.sdata2)
 .sdata2        0x80039c7c        0x0 /Programs/devkitpro/devkitPPC/bin/../lib/gcc/powerpc-gekko/4.2.4/ecrti.o
                0x80039c7c                __SDATA2_START__
                0x80039c7c                _SDA2_BASE_
 *(.sdata2.*)
 .sdata2.C.25.8465
                0x80039c7c        0x3 /Programs/devkitpro/libogc/lib/wii/libbte.a(bte.o)
 *fill*         0x80039c7f        0x1 00
 .sdata2.C.26.8500
                0x80039c80        0x3 /Programs/devkitpro/libogc/lib/wii/libbte.a(bte.o)
 *fill*         0x80039c83        0x1 00
 .sdata2.C.27.8520
                0x80039c84        0x3 /Programs/devkitpro/libogc/lib/wii/libbte.a(bte.o)
 *fill*         0x80039c87        0x1 00
 .sdata2.C.24.8446
                0x80039c88        0x3 /Programs/devkitpro/libogc/lib/wii/libbte.a(bte.o)
 *fill*         0x80039c8b        0x1 00
 .sdata2.__sys_inIPL
                0x80039c8c        0x4 /Programs/devkitpro/libogc/lib/wii/libogc.a(system.o)
 *(.gnu.linkonce.s2.*)

.sbss2
 *(.sbss2)
 *(.sbss2.*)
 *(.gnu.linkonce.sb2.*)
                0x80039c90                . = ALIGN (0x4)
                0x80039c90                PROVIDE (__preinit_array_start, .)

.preinit_array
 *(.preinit_array)
                0x80039c90                PROVIDE (__preinit_array_end, .)
                0x80039c90                PROVIDE (__init_array_start, .)

.init_array
 *(.init_array)
                0x80039c90                PROVIDE (__init_array_end, .)
                0x80039c90                PROVIDE (__fini_array_start, .)

.fini_array
 *(.fini_array)
                0x80039c90                PROVIDE (__fini_array_end, .)

.data           0x80039ca0     0x1ce0
 *(.data)
 .data          0x80039ca0        0x8 /Programs/devkitpro/devkitPPC/bin/../lib/gcc/powerpc-gekko/4.2.4/crtbegin.o
                0x80039ca0                __dso_handle
 .data          0x80039ca8        0x4 /Programs/devkitpro/libogc/lib/wii/libisfs.a(isfs.o)
 .data          0x80039cac        0x8 /Programs/devkitpro/libogc/lib/wii/libogc.a(ogc_crt0.o)
 .data          0x80039cb4       0x44 /Programs/devkitpro/devkitPPC/bin/../lib/gcc/powerpc-gekko/4.2.4/../../../../powerpc-gekko/lib/libsysbase.a(iosupport.o)
                0x80039cb8                devoptab_list
 .data          0x80039cf8      0x400 /Programs/devkitpro/devkitPPC/bin/../lib/gcc/powerpc-gekko/4.2.4/../../../../powerpc-gekko/lib/libc.a(lib_a-impure.o)
 .data          0x8003a0f8      0x408 /Programs/devkitpro/devkitPPC/bin/../lib/gcc/powerpc-gekko/4.2.4/../../../../powerpc-gekko/lib/libc.a(lib_a-mallocr.o)
                0x8003a0f8                __malloc_av_
 .data          0x8003a500       0x34 /Programs/devkitpro/devkitPPC/bin/../lib/gcc/powerpc-gekko/4.2.4/../../../../powerpc-gekko/lib/libc.a(lib_a-locale.o)
                0x8003a510                __lc_ctype
 *(.data.*)
 .data.MII_COLORS
                0x8003a534       0x30 main.o
                0x8003a534                MII_COLORS
 .data.__wpad_resetinfo
                0x8003a564       0x10 /Programs/devkitpro/libogc/lib/wii/libwiiuse.a(wpad.o)
 .data.bte_patch0
                0x8003a574       0xb8 /Programs/devkitpro/libogc/lib/wii/libbte.a(bte.o)
 .data.bte_patch1
                0x8003a62c       0x5c /Programs/devkitpro/libogc/lib/wii/libbte.a(bte.o)
 .data.TVPal528IntDf
                0x8003a688       0x3c /Programs/devkitpro/libogc/lib/wii/libogc.a(video.o)
                0x8003a688                TVPal528IntDf
 .data.TVNtsc480Prog
                0x8003a6c4       0x3c /Programs/devkitpro/libogc/lib/wii/libogc.a(video.o)
                0x8003a6c4                TVNtsc480Prog
 .data.TVNtsc480IntDf
                0x8003a700       0x3c /Programs/devkitpro/libogc/lib/wii/libogc.a(video.o)
                0x8003a700                TVNtsc480IntDf
 .data.TVEurgb60Hz480Int
                0x8003a73c       0x3c /Programs/devkitpro/libogc/lib/wii/libogc.a(video.o)
                0x8003a73c                TVEurgb60Hz480Int
 .data.TVMpal480IntDf
                0x8003a778       0x3c /Programs/devkitpro/libogc/lib/wii/libogc.a(video.o)
                0x8003a778                TVMpal480IntDf
 .data._dsp_initcode
                0x8003a7b4       0x80 /Programs/devkitpro/libogc/lib/wii/libogc.a(system.o)
 .data.mem_resetinfo
                0x8003a834       0x10 /Programs/devkitpro/libogc/lib/wii/libogc.a(system.o)
 .data.xy       0x8003a844       0x60 /Programs/devkitpro/libogc/lib/wii/libogc.a(si.o)
 .data.sicntrl  0x8003a8a4       0x14 /Programs/devkitpro/libogc/lib/wii/libogc.a(si.o)
 .data.si_type  0x8003a8b8       0x10 /Programs/devkitpro/libogc/lib/wii/libogc.a(si.o)
 .data.console_font_8x16
                0x8003a8c8     0x1000 /Programs/devkitpro/libogc/lib/wii/libogc.a(console_font_8x16.o)
                0x8003a8c8                console_font_8x16
 *fill*         0x8003b8c8       0x18 00
 .data.__stm_imm_fs
                0x8003b8e0       0x13 /Programs/devkitpro/libogc/lib/wii/libogc.a(stm.o)
 *fill*         0x8003b8f3        0xd 00
 .data.__stm_eh_fs
                0x8003b900       0x13 /Programs/devkitpro/libogc/lib/wii/libogc.a(stm.o)
 *fill*         0x8003b913        0xd 00
 .data.__stateflags
                0x8003b920       0x28 /Programs/devkitpro/libogc/lib/wii/libogc.a(wiilaunch.o)
 *fill*         0x8003b948       0x18 00
 .data.__nandbootinfo
                0x8003b960       0x1a /Programs/devkitpro/libogc/lib/wii/libogc.a(wiilaunch.o)
 *(.gnu.linkonce.d.*)
                0x8003b980                . = ALIGN (0x20)
 *fill*         0x8003b97a        0x6 00

.data1
 *(.data1)

.tdata
 *(.tdata .tdata.* .gnu.linkonce.td.*)

.tbss
 *(.tbss .tbss.* .gnu.linkonce.tb.*)
 *(.tcommon)

.eh_frame       0x8003b980       0x50
 *(.eh_frame)
 .eh_frame      0x8003b980        0x0 /Programs/devkitpro/devkitPPC/bin/../lib/gcc/powerpc-gekko/4.2.4/ecrti.o
                0x8003b980                __EH_FRAME_BEGIN__
 .eh_frame      0x8003b980        0x0 /Programs/devkitpro/devkitPPC/bin/../lib/gcc/powerpc-gekko/4.2.4/crtbegin.o
 .eh_frame      0x8003b980       0x28 /Programs/devkitpro/devkitPPC/bin/../lib/gcc/powerpc-gekko/4.2.4/libgcc.a(_udivdi3.o)
 .eh_frame      0x8003b9a8       0x20 /Programs/devkitpro/devkitPPC/bin/../lib/gcc/powerpc-gekko/4.2.4/libgcc.a(_umoddi3.o)
                                 0x30 (size before relaxing)
 .eh_frame      0x8003b9c8        0x4 /Programs/devkitpro/devkitPPC/bin/../lib/gcc/powerpc-gekko/4.2.4/crtend.o
 .eh_frame      0x8003b9cc        0x4 /Programs/devkitpro/devkitPPC/bin/../lib/gcc/powerpc-gekko/4.2.4/ecrtn.o
                0x8003b9cc                __EH_FRAME_END__

.gcc_except_table
 *(.gcc_except_table)

.fixup
 *(.fixup)

.got1
 *(.got1)

.got2           0x8003b9d0        0x4
 *(.got2)
 .got2          0x8003b9d0        0x4 /Programs/devkitpro/devkitPPC/bin/../lib/gcc/powerpc-gekko/4.2.4/../../../../powerpc-gekko/lib/crtmain.o

.dynamic
 *(.dynamic)

.ctors          0x8003b9d4        0xc
 *crtbegin.o(.ctors)
 .ctors         0x8003b9d4        0x4 /Programs/devkitpro/devkitPPC/bin/../lib/gcc/powerpc-gekko/4.2.4/crtbegin.o
 *(EXCLUDE_FILE(*crtend.o) .ctors)
 .ctors         0x8003b9d8        0x0 /Programs/devkitpro/devkitPPC/bin/../lib/gcc/powerpc-gekko/4.2.4/ecrti.o
                0x8003b9d8                __CTOR_LIST__
 .ctors         0x8003b9d8        0x0 /Programs/devkitpro/devkitPPC/bin/../lib/gcc/powerpc-gekko/4.2.4/ecrtn.o
                0x8003b9d8                __CTOR_END__
 *(SORT(.ctors.*))
 *(.ctors)
 .ctors         0x8003b9d8        0x4 /Programs/devkitpro/devkitPPC/bin/../lib/gcc/powerpc-gekko/4.2.4/crtend.o
                0x8003b9e0                . = ALIGN (0x20)
 *fill*         0x8003b9dc        0x4 00

.dtors          0x8003b9e0       0x20
 *crtbegin.o(.dtors)
 .dtors         0x8003b9e0        0x4 /Programs/devkitpro/devkitPPC/bin/../lib/gcc/powerpc-gekko/4.2.4/crtbegin.o
 *(EXCLUDE_FILE(*crtend.o) .dtors)
 .dtors         0x8003b9e4        0x0 /Programs/devkitpro/devkitPPC/bin/../lib/gcc/powerpc-gekko/4.2.4/ecrti.o
                0x8003b9e4                __DTOR_LIST__
 .dtors         0x8003b9e4        0x0 /Programs/devkitpro/devkitPPC/bin/../lib/gcc/powerpc-gekko/4.2.4/ecrtn.o
                0x8003b9e4                __DTOR_END__
 *(SORT(.dtors.*))
 *(.dtors)
 .dtors         0x8003b9e4        0x4 /Programs/devkitpro/devkitPPC/bin/../lib/gcc/powerpc-gekko/4.2.4/crtend.o
                0x8003ba00                . = ALIGN (0x20)
 *fill*         0x8003b9e8       0x18 00

.jcr            0x8003ba00        0x4
 *(.jcr)
 .jcr           0x8003ba00        0x0 /Programs/devkitpro/devkitPPC/bin/../lib/gcc/powerpc-gekko/4.2.4/crtbegin.o
 .jcr           0x8003ba00        0x4 /Programs/devkitpro/devkitPPC/bin/../lib/gcc/powerpc-gekko/4.2.4/crtend.o

.got
 *(.got.plt)
 *(.got)

.sdata          0x8003ba20      0x140
 *(.sdata)
 .sdata         0x8003ba20        0x0 /Programs/devkitpro/devkitPPC/bin/../lib/gcc/powerpc-gekko/4.2.4/ecrti.o
                0x8003ba20                _SDA_BASE_
                0x8003ba20                __SDATA_START__
 .sdata         0x8003ba20        0x4 /Programs/devkitpro/libogc/lib/wii/libogc.a(ogc_crt0.o)
                0x8003ba20                __system_argv
 *fill*         0x8003ba24        0x4 00
 .sdata         0x8003ba28       0x40 /Programs/devkitpro/devkitPPC/bin/../lib/gcc/powerpc-gekko/4.2.4/../../../../powerpc-gekko/lib/libm.a(lib_a-s_mathcnst.o)
                0x8003ba28                BIGX
                0x8003ba50                z_hugeval
                0x8003ba58                z_infinity
                0x8003ba48                z_infinity_f
                0x8003ba38                z_rooteps
                0x8003ba60                z_notanum
                0x8003ba30                SMALLX
                0x8003ba44                z_hugeval_f
                0x8003ba40                z_rooteps_f
                0x8003ba4c                z_notanum_f
 .sdata         0x8003ba68        0x4 /Programs/devkitpro/devkitPPC/bin/../lib/gcc/powerpc-gekko/4.2.4/../../../../powerpc-gekko/lib/libc.a(lib_a-ctype_.o)
                0x8003ba68                __ctype_ptr
 .sdata         0x8003ba6c        0x8 /Programs/devkitpro/devkitPPC/bin/../lib/gcc/powerpc-gekko/4.2.4/../../../../powerpc-gekko/lib/libc.a(lib_a-impure.o)
                0x8003ba70                _global_impure_ptr
                0x8003ba6c                _impure_ptr
 .sdata         0x8003ba74        0x8 /Programs/devkitpro/devkitPPC/bin/../lib/gcc/powerpc-gekko/4.2.4/../../../../powerpc-gekko/lib/libc.a(lib_a-mallocr.o)
                0x8003ba78                __malloc_sbrk_base
                0x8003ba74                __malloc_trim_threshold
 .sdata         0x8003ba7c        0x4 /Programs/devkitpro/devkitPPC/bin/../lib/gcc/powerpc-gekko/4.2.4/../../../../powerpc-gekko/lib/libc.a(lib_a-locale.o)
                0x8003ba7c                __mb_cur_max
 *(.sdata.*)
 .sdata.__wpad_idletimeout
                0x8003ba80        0x4 /Programs/devkitpro/libogc/lib/wii/libwiiuse.a(wpad.o)
 .sdata.__wpad_powcb
                0x8003ba84        0x4 /Programs/devkitpro/libogc/lib/wii/libwiiuse.a(wpad.o)
 .sdata.bte_ctrl_reqs
                0x8003ba88        0x8 /Programs/devkitpro/libogc/lib/wii/libbte.a(bte.o)
 .sdata.bte_pcbs
                0x8003ba90        0x8 /Programs/devkitpro/libogc/lib/wii/libbte.a(bte.o)
 .sdata.hci_inq_results
                0x8003ba98        0x8 /Programs/devkitpro/libogc/lib/wii/libbte.a(hci.o)
 .sdata.hci_pcbs
                0x8003baa0        0x8 /Programs/devkitpro/libogc/lib/wii/libbte.a(hci.o)
 .sdata.hci_links
                0x8003baa8        0x8 /Programs/devkitpro/libogc/lib/wii/libbte.a(hci.o)
 .sdata.hci_link_key_results
                0x8003bab0        0x8 /Programs/devkitpro/libogc/lib/wii/libbte.a(hci.o)
 .sdata.l2cap_segs
                0x8003bab8        0x8 /Programs/devkitpro/libogc/lib/wii/libbte.a(l2cap.o)
 .sdata.l2cap_sigs
                0x8003bac0        0x8 /Programs/devkitpro/libogc/lib/wii/libbte.a(l2cap.o)
 .sdata.l2cap_pcbs
                0x8003bac8        0x8 /Programs/devkitpro/libogc/lib/wii/libbte.a(l2cap.o)
 .sdata.l2cap_listenpcbs
                0x8003bad0        0x8 /Programs/devkitpro/libogc/lib/wii/libbte.a(l2cap.o)
 .sdata.pool_pbufs
                0x8003bad8        0x8 /Programs/devkitpro/libogc/lib/wii/libbte.a(btpbuf.o)
 .sdata.rom_pbufs
                0x8003bae0        0x8 /Programs/devkitpro/libogc/lib/wii/libbte.a(btpbuf.o)
 .sdata.__wait4hci
                0x8003bae8        0x4 /Programs/devkitpro/libogc/lib/wii/libbte.a(physbusif.o)
 .sdata.__ntd_usb_fd
                0x8003baec        0x4 /Programs/devkitpro/libogc/lib/wii/libbte.a(physbusif.o)
 .sdata.__gecko_status
                0x8003baf0        0x4 /Programs/devkitpro/libogc/lib/wii/libogc.a(console.o)
 .sdata.oldTvStatus
                0x8003baf4        0x4 /Programs/devkitpro/libogc/lib/wii/libogc.a(video.o)
 .sdata.oldDtvStatus
                0x8003baf8        0x4 /Programs/devkitpro/libogc/lib/wii/libogc.a(video.o)
 .sdata.i2cIdentFlag
                0x8003bafc        0x4 /Programs/devkitpro/libogc/lib/wii/libogc.a(video.o)
 .sdata.__argvArena1Lo
                0x8003bb00        0x4 /Programs/devkitpro/libogc/lib/wii/libogc.a(system.o)
                0x8003bb00                __argvArena1Lo
 .sdata._ipc_hid
                0x8003bb04        0x4 /Programs/devkitpro/libogc/lib/wii/libogc.a(ipc.o)
 .sdata._ipc_mailboxack
                0x8003bb08        0x4 /Programs/devkitpro/libogc/lib/wii/libogc.a(ipc.o)
 .sdata.__stm_imm_fd
                0x8003bb0c        0x4 /Programs/devkitpro/libogc/lib/wii/libogc.a(stm.o)
 .sdata.__stm_eh_fd
                0x8003bb10        0x4 /Programs/devkitpro/libogc/lib/wii/libogc.a(stm.o)
 .sdata.__ios_hid
                0x8003bb14        0x4 /Programs/devkitpro/libogc/lib/wii/libogc.a(ios.o)
 .sdata.__es_fd
                0x8003bb18        0x4 /Programs/devkitpro/libogc/lib/wii/libogc.a(es.o)
 *fill*         0x8003bb1c        0x4 00
 .sdata.__es_fs
                0x8003bb20        0x8 /Programs/devkitpro/libogc/lib/wii/libogc.a(es.o)
 .sdata.__es_hid
                0x8003bb28        0x4 /Programs/devkitpro/libogc/lib/wii/libogc.a(es.o)
 .sdata._fs_fd  0x8003bb2c        0x4 /Programs/devkitpro/libogc/lib/wii/libogc.a(isfs.o)
 .sdata.hId     0x8003bb30        0x4 /Programs/devkitpro/libogc/lib/wii/libogc.a(isfs.o)
 *fill*         0x8003bb34        0xc 00
 .sdata._dev_fs
                0x8003bb40        0x8 /Programs/devkitpro/libogc/lib/wii/libogc.a(isfs.o)
 .sdata.hId     0x8003bb48        0x4 /Programs/devkitpro/libogc/lib/wii/libogc.a(usb.o)
 .sdata.__pad_spec
                0x8003bb4c        0x4 /Programs/devkitpro/libogc/lib/wii/libogc.a(pad.o)
 .sdata.__pad_cmdcalibrate
                0x8003bb50        0x4 /Programs/devkitpro/libogc/lib/wii/libogc.a(pad.o)
 .sdata.__pad_resettingchan
                0x8003bb54        0x4 /Programs/devkitpro/libogc/lib/wii/libogc.a(pad.o)
 .sdata.__pad_cmdreadorigin
                0x8003bb58        0x4 /Programs/devkitpro/libogc/lib/wii/libogc.a(pad.o)
 *(.gnu.linkonce.s.*)
                0x8003bb60                . = ALIGN (0x20)
 *fill*         0x8003bb5c        0x4 00
                0x8003bb60                _edata = .
                0x8003bb60                PROVIDE (edata, .)

.sbss           0x8003bb60      0x200
                0x8003bb60                __sbss_start = .
                0x8003bb60                PROVIDE (__sbss_start, .)
                0x8003bb60                PROVIDE (___sbss_start, .)
 *(.dynsbss)
 *(.sbss)
 .sbss          0x00000000        0x0 /Programs/devkitpro/devkitPPC/bin/../lib/gcc/powerpc-gekko/4.2.4/crtbegin.o
 .sbss          0x8003bb60        0x5 /Programs/devkitpro/libogc/lib/wii/libbte.a(l2cap.o)
                0x8003bb60                l2cap_active_pcbs
                0x8003bb64                sigid_nxt
 *fill*         0x8003bb65        0x3 00
 .sbss          0x8003bb68        0x8 /Programs/devkitpro/libogc/lib/wii/libogc.a(lwp_threads.o)
                0x8003bb68                _context_switch_want
                0x8003bb6c                _thread_dispatch_disable_level
 .sbss          0x8003bb70        0xc /Programs/devkitpro/libogc/lib/wii/libogc.a(lwp_watchdog.o)
                0x8003bb70                _wd_sync_count
                0x8003bb74                _wd_sync_level
                0x8003bb78                _wd_ticks_since_boot
 .sbss          0x8003bb7c        0x4 /Programs/devkitpro/libogc/lib/wii/libogc.a(sys_state.o)
                0x8003bb7c                _sys_state_curr
 .sbss          0x8003bb80        0x4 /Programs/devkitpro/libogc/lib/wii/libogc.a(newlibc.o)
                0x8003bb80                libc_reentrant
 .sbss          0x8003bb84        0x4 /Programs/devkitpro/libogc/lib/wii/libogc.a(lwp_priority.o)
                0x8003bb84                _prio_major_bitmap
 .sbss          0x8003bb88        0xc /Programs/devkitpro/devkitPPC/bin/../lib/gcc/powerpc-gekko/4.2.4/../../../../powerpc-gekko/lib/libc.a(lib_a-mallocr.o)
                0x8003bb88                __malloc_top_pad
                0x8003bb8c                __malloc_max_sbrked_mem
                0x8003bb90                __malloc_max_total_mem
 *(.sbss.*)
 .sbss.__wpads_used
                0x8003bb94        0x4 /Programs/devkitpro/libogc/lib/wii/libwiiuse.a(wpad.o)
 .sbss.__wpads  0x8003bb98        0x4 /Programs/devkitpro/libogc/lib/wii/libwiiuse.a(wpad.o)
 .sbss.__wpad_timer
                0x8003bb9c        0x4 /Programs/devkitpro/libogc/lib/wii/libwiiuse.a(wpad.o)
 .sbss.__wpads_inited
                0x8003bba0        0x4 /Programs/devkitpro/libogc/lib/wii/libwiiuse.a(wpad.o)
 .sbss.__wpads_ponded
                0x8003bba4        0x4 /Programs/devkitpro/libogc/lib/wii/libwiiuse.a(wpad.o)
 .sbss.__wpads_active
                0x8003bba8        0x4 /Programs/devkitpro/libogc/lib/wii/libwiiuse.a(wpad.o)
 .sbss.__wpad_batcb
                0x8003bbac        0x4 /Programs/devkitpro/libogc/lib/wii/libwiiuse.a(wpad.o)
 .sbss.hci_dev  0x8003bbb0        0x4 /Programs/devkitpro/libogc/lib/wii/libbte.a(hci.o)
                0x8003bbb0                hci_dev
 .sbss.hci_active_links
                0x8003bbb4        0x4 /Programs/devkitpro/libogc/lib/wii/libbte.a(hci.o)
                0x8003bbb4                hci_active_links
 .sbss.hci_tmp_link
                0x8003bbb8        0x4 /Programs/devkitpro/libogc/lib/wii/libbte.a(hci.o)
                0x8003bbb8                hci_tmp_link
 .sbss.l2cap_listen_pcbs
                0x8003bbbc        0x4 /Programs/devkitpro/libogc/lib/wii/libbte.a(l2cap.o)
                0x8003bbbc                l2cap_listen_pcbs
 .sbss.l2cap_tmp_sig
                0x8003bbc0        0x4 /Programs/devkitpro/libogc/lib/wii/libbte.a(l2cap.o)
                0x8003bbc0                l2cap_tmp_sig
 .sbss.l2cap_disconnect_bb_cb
                0x8003bbc4        0x4 /Programs/devkitpro/libogc/lib/wii/libbte.a(l2cap.o)
 .sbss.l2cap_tmp_pcb
                0x8003bbc8        0x4 /Programs/devkitpro/libogc/lib/wii/libbte.a(l2cap.o)
                0x8003bbc8                l2cap_tmp_pcb
 .sbss.l2cap_tmp_inseg
                0x8003bbcc        0x4 /Programs/devkitpro/libogc/lib/wii/libbte.a(l2cap.o)
                0x8003bbcc                l2cap_tmp_inseg
 .sbss.l2cap_insegs
                0x8003bbd0        0x4 /Programs/devkitpro/libogc/lib/wii/libbte.a(l2cap.o)
                0x8003bbd0                l2cap_insegs
 .sbss.ram_end  0x8003bbd4        0x4 /Programs/devkitpro/libogc/lib/wii/libbte.a(btmemr.o)
 .sbss.ram_free
                0x8003bbd8        0x4 /Programs/devkitpro/libogc/lib/wii/libbte.a(btmemr.o)
 .sbss.__ntd_vid
                0x8003bbdc        0x2 /Programs/devkitpro/libogc/lib/wii/libbte.a(physbusif.o)
 *fill*         0x8003bbde        0x2 00
 .sbss.ctrlbufs
                0x8003bbe0        0x8 /Programs/devkitpro/libogc/lib/wii/libbte.a(physbusif.o)
 .sbss.__ntd_pid
                0x8003bbe8        0x2 /Programs/devkitpro/libogc/lib/wii/libbte.a(physbusif.o)
 *fill*         0x8003bbea        0x2 00
 .sbss.__ntd_ohci
                0x8003bbec        0x4 /Programs/devkitpro/libogc/lib/wii/libbte.a(physbusif.o)
 .sbss.__ntd_vid_pid_specified
                0x8003bbf0        0x4 /Programs/devkitpro/libogc/lib/wii/libbte.a(physbusif.o)
 .sbss.__ntd_ohci_initflag
                0x8003bbf4        0x4 /Programs/devkitpro/libogc/lib/wii/libbte.a(physbusif.o)
 .sbss.aclbufs  0x8003bbf8        0x8 /Programs/devkitpro/libogc/lib/wii/libbte.a(physbusif.o)
 .sbss.curr_con
                0x8003bc00        0x4 /Programs/devkitpro/libogc/lib/wii/libogc.a(console.o)
 .sbss.__gecko_safe
                0x8003bc04        0x4 /Programs/devkitpro/libogc/lib/wii/libogc.a(console.o)
 .sbss.do_xfb_copy
                0x8003bc08        0x4 /Programs/devkitpro/libogc/lib/wii/libogc.a(console.o)
 .sbss._thr_executing
                0x8003bc0c        0x4 /Programs/devkitpro/libogc/lib/wii/libogc.a(lwp_threads.o)
                0x8003bc0c                _thr_executing
 .sbss._lwp_exitfunc
                0x8003bc10        0x4 /Programs/devkitpro/libogc/lib/wii/libogc.a(lwp_threads.o)
 .sbss._thr_main
                0x8003bc14        0x4 /Programs/devkitpro/libogc/lib/wii/libogc.a(lwp_threads.o)
                0x8003bc14                _thr_main
 .sbss.__lwp_thr_libc_reent
                0x8003bc18        0x4 /Programs/devkitpro/libogc/lib/wii/libogc.a(lwp_threads.o)
                0x8003bc18                __lwp_thr_libc_reent
 .sbss._thr_heir
                0x8003bc1c        0x4 /Programs/devkitpro/libogc/lib/wii/libogc.a(lwp_threads.o)
                0x8003bc1c                _thr_heir
 .sbss._thr_allocated_fp
                0x8003bc20        0x4 /Programs/devkitpro/libogc/lib/wii/libogc.a(lwp_threads.o)
                0x8003bc20                _thr_allocated_fp
 .sbss._lwp_ticks_per_timeslice
                0x8003bc24        0x4 /Programs/devkitpro/libogc/lib/wii/libogc.a(lwp_threads.o)
                0x8003bc24                _lwp_ticks_per_timeslice
 .sbss._thr_idle
                0x8003bc28        0x4 /Programs/devkitpro/libogc/lib/wii/libogc.a(lwp_threads.o)
                0x8003bc28                _thr_idle
 .sbss.__wkspace_heap_size
                0x8003bc2c        0x4 /Programs/devkitpro/libogc/lib/wii/libogc.a(lwp_wkspace.o)
 .sbss.null_local_table
                0x8003bc30        0x4 /Programs/devkitpro/libogc/lib/wii/libogc.a(lwp_objmgr.o)
 .sbss._lwp_objmgr_memsize
                0x8003bc34        0x4 /Programs/devkitpro/libogc/lib/wii/libogc.a(lwp_objmgr.o)
 .sbss.spuriousIrq
                0x8003bc38        0x8 /Programs/devkitpro/libogc/lib/wii/libogc.a(irq.o)
 .sbss.prevIrqMask
                0x8003bc40        0x4 /Programs/devkitpro/libogc/lib/wii/libogc.a(irq.o)
 .sbss.currIrqMask
                0x8003bc44        0x4 /Programs/devkitpro/libogc/lib/wii/libogc.a(irq.o)
 .sbss.postRetraceCB
                0x8003bc48        0x4 /Programs/devkitpro/libogc/lib/wii/libogc.a(video.o)
 .sbss.currentFb
                0x8003bc4c        0x4 /Programs/devkitpro/libogc/lib/wii/libogc.a(video.o)
 .sbss.currTiming
                0x8003bc50        0x4 /Programs/devkitpro/libogc/lib/wii/libogc.a(video.o)
 .sbss.currTvMode
                0x8003bc54        0x4 /Programs/devkitpro/libogc/lib/wii/libogc.a(video.o)
 .sbss.nextFb   0x8003bc58        0x4 /Programs/devkitpro/libogc/lib/wii/libogc.a(video.o)
 .sbss.encoderType
                0x8003bc5c        0x4 /Programs/devkitpro/libogc/lib/wii/libogc.a(video.o)
 .sbss.displayOffsetH
                0x8003bc60        0x2 /Programs/devkitpro/libogc/lib/wii/libogc.a(video.o)
 *fill*         0x8003bc62        0x2 00
 .sbss.changeMode
                0x8003bc64        0x4 /Programs/devkitpro/libogc/lib/wii/libogc.a(video.o)
 .sbss.displayOffsetV
                0x8003bc68        0x2 /Programs/devkitpro/libogc/lib/wii/libogc.a(video.o)
 *fill*         0x8003bc6a        0x2 00
 .sbss.flushFlag
                0x8003bc6c        0x4 /Programs/devkitpro/libogc/lib/wii/libogc.a(video.o)
 .sbss.preRetraceCB
                0x8003bc70        0x4 /Programs/devkitpro/libogc/lib/wii/libogc.a(video.o)
 .sbss.video_queue
                0x8003bc74        0x4 /Programs/devkitpro/libogc/lib/wii/libogc.a(video.o)
 .sbss.shdw_changeMode
                0x8003bc78        0x4 /Programs/devkitpro/libogc/lib/wii/libogc.a(video.o)
 .sbss.retraceCount
                0x8003bc7c        0x4 /Programs/devkitpro/libogc/lib/wii/libogc.a(video.o)
 .sbss.changed  0x8003bc80        0x8 /Programs/devkitpro/libogc/lib/wii/libogc.a(video.o)
 .sbss.fbSet    0x8003bc88        0x4 /Programs/devkitpro/libogc/lib/wii/libogc.a(video.o)
 .sbss.vdacFlagRegion
                0x8003bc8c        0x4 /Programs/devkitpro/libogc/lib/wii/libogc.a(video.o)
 .sbss.shdw_changed
                0x8003bc90        0x8 /Programs/devkitpro/libogc/lib/wii/libogc.a(video.o)
 .sbss.i2cIdentFirst
                0x8003bc98        0x4 /Programs/devkitpro/libogc/lib/wii/libogc.a(video.o)
 .sbss.__sysarena1hi
                0x8003bc9c        0x4 /Programs/devkitpro/libogc/lib/wii/libogc.a(system.o)
 .sbss.__ipcbufferhi
                0x8003bca0        0x4 /Programs/devkitpro/libogc/lib/wii/libogc.a(system.o)
 .sbss.__sysarena2lo
                0x8003bca4        0x4 /Programs/devkitpro/libogc/lib/wii/libogc.a(system.o)
 .sbss.system_initialized
                0x8003bca8        0x4 /Programs/devkitpro/libogc/lib/wii/libogc.a(system.o)
 .sbss.__sysarena1lo
                0x8003bcac        0x4 /Programs/devkitpro/libogc/lib/wii/libogc.a(system.o)
 .sbss.__sys_versionbuild
                0x8003bcb0        0x4 /Programs/devkitpro/libogc/lib/wii/libogc.a(system.o)
 .sbss.__ipcbufferlo
                0x8003bcb4        0x4 /Programs/devkitpro/libogc/lib/wii/libogc.a(system.o)
 .sbss.__sysarena2hi
                0x8003bcb8        0x4 /Programs/devkitpro/libogc/lib/wii/libogc.a(system.o)
 .sbss.__sys_versiondate
                0x8003bcbc        0x4 /Programs/devkitpro/libogc/lib/wii/libogc.a(system.o)
 .sbss.__RSWCallback
                0x8003bcc0        0x4 /Programs/devkitpro/libogc/lib/wii/libogc.a(system.o)
 .sbss.__POWCallback
                0x8003bcc4        0x4 /Programs/devkitpro/libogc/lib/wii/libogc.a(system.o)
 .sbss.__sys_resetdown
                0x8003bcc8        0x4 /Programs/devkitpro/libogc/lib/wii/libogc.a(system.o)
 .sbss.__PADFixBits
                0x8003bccc        0x4 /Programs/devkitpro/libogc/lib/wii/libogc.a(si.o)
                0x8003bccc                __PADFixBits
 .sbss.cmdtypeandstatus$47
                0x8003bcd0        0x4 /Programs/devkitpro/libogc/lib/wii/libogc.a(si.o)
 .sbss.sampling_rate
                0x8003bcd4        0x4 /Programs/devkitpro/libogc/lib/wii/libogc.a(si.o)
 .sbss.cmdtypeandstatus$223
                0x8003bcd8        0x4 /Programs/devkitpro/libogc/lib/wii/libogc.a(si.o)
 .sbss._ipc_currbufferhi
                0x8003bcdc        0x4 /Programs/devkitpro/libogc/lib/wii/libogc.a(ipc.o)
 .sbss._ipc_spuriousresponsecnt
                0x8003bce0        0x8 /Programs/devkitpro/libogc/lib/wii/libogc.a(ipc.o)
 .sbss._ipc_relnchFl
                0x8003bce8        0x4 /Programs/devkitpro/libogc/lib/wii/libogc.a(ipc.o)
 .sbss._ipc_clntinitialized
                0x8003bcec        0x4 /Programs/devkitpro/libogc/lib/wii/libogc.a(ipc.o)
 .sbss._ipc_bufferlo
                0x8003bcf0        0x4 /Programs/devkitpro/libogc/lib/wii/libogc.a(ipc.o)
 .sbss._ipc_bufferhi
                0x8003bcf4        0x4 /Programs/devkitpro/libogc/lib/wii/libogc.a(ipc.o)
 .sbss._ipc_currbufferlo
                0x8003bcf8        0x4 /Programs/devkitpro/libogc/lib/wii/libogc.a(ipc.o)
 .sbss._ipc_relnchRpc
                0x8003bcfc        0x4 /Programs/devkitpro/libogc/lib/wii/libogc.a(ipc.o)
 .sbss._ipc_initialized
                0x8003bd00        0x4 /Programs/devkitpro/libogc/lib/wii/libogc.a(ipc.o)
 .sbss.time_exi_wait
                0x8003bd04        0x4 /Programs/devkitpro/libogc/lib/wii/libogc.a(timesupp.o)
 .sbss.exi_wait_inited
                0x8003bd08        0x4 /Programs/devkitpro/libogc/lib/wii/libogc.a(timesupp.o)
 .sbss.wait_exi_queue
                0x8003bd0c        0x8 /Programs/devkitpro/libogc/lib/wii/libogc.a(usbgecko.o)
 .sbss.usbgecko_inited
                0x8003bd14        0x4 /Programs/devkitpro/libogc/lib/wii/libogc.a(usbgecko.o)
 .sbss.initialized
                0x8003bd18        0x4 /Programs/devkitpro/libogc/lib/wii/libogc.a(malloc_lock.o)
 .sbss.__stm_initialized
                0x8003bd1c        0x4 /Programs/devkitpro/libogc/lib/wii/libogc.a(stm.o)
 .sbss.__stm_vdinuse
                0x8003bd20        0x4 /Programs/devkitpro/libogc/lib/wii/libogc.a(stm.o)
 .sbss.__stm_ehregistered
                0x8003bd24        0x4 /Programs/devkitpro/libogc/lib/wii/libogc.a(stm.o)
 .sbss.__stm_eventcb
                0x8003bd28        0x4 /Programs/devkitpro/libogc/lib/wii/libogc.a(stm.o)
                0x8003bd28                __stm_eventcb
 .sbss.__stm_ehclear
                0x8003bd2c        0x4 /Programs/devkitpro/libogc/lib/wii/libogc.a(stm.o)
 .sbss._fs_initialized
                0x8003bd30        0x4 /Programs/devkitpro/libogc/lib/wii/libogc.a(isfs.o)
 .sbss.__conf_inited
                0x8003bd34        0x4 /Programs/devkitpro/libogc/lib/wii/libogc.a(conf.o)
 .sbss.__initialized
                0x8003bd38        0x4 /Programs/devkitpro/libogc/lib/wii/libogc.a(wiilaunch.o)
 .sbss.__pad_makestatus
                0x8003bd3c        0x4 /Programs/devkitpro/libogc/lib/wii/libogc.a(pad.o)
 .sbss.__pad_resettingbits
                0x8003bd40        0x4 /Programs/devkitpro/libogc/lib/wii/libogc.a(pad.o)
 .sbss.__pad_recalibratebits
                0x8003bd44        0x4 /Programs/devkitpro/libogc/lib/wii/libogc.a(pad.o)
 .sbss.__pad_enabledbits
                0x8003bd48        0x4 /Programs/devkitpro/libogc/lib/wii/libogc.a(pad.o)
 .sbss.__pad_pendingbits
                0x8003bd4c        0x4 /Programs/devkitpro/libogc/lib/wii/libogc.a(pad.o)
 .sbss.__pad_checkingbits
                0x8003bd50        0x4 /Programs/devkitpro/libogc/lib/wii/libogc.a(pad.o)
 .sbss.__pad_waitingbits
                0x8003bd54        0x4 /Programs/devkitpro/libogc/lib/wii/libogc.a(pad.o)
 .sbss.exi_id_serport1
                0x8003bd58        0x4 /Programs/devkitpro/libogc/lib/wii/libogc.a(exi.o)
 *(.gnu.linkonce.sb.*)
 *(.scommon)
                0x8003bd5c                PROVIDE (__sbss_end, .)
                0x8003bd5c                PROVIDE (___sbss_end, .)
                0x8003bd60                . = ALIGN (0x20)
 *fill*         0x8003bd5c        0x4 00
                0x8003bd60                __sbss_end = .

.bss            0x8003bd60    0x82f60
                0x8003bd60                __bss_start = .
                0x8003bd60                PROVIDE (__bss_start, .)
 *(.dynbss)
 *(.bss)
 .bss           0x8003bd60       0x1c /Programs/devkitpro/devkitPPC/bin/../lib/gcc/powerpc-gekko/4.2.4/crtbegin.o
 *fill*         0x8003bd7c        0x4 00
 .bss           0x8003bd80     0x8028 /Programs/devkitpro/libogc/lib/wii/libisfs.a(isfs.o)
 .bss           0x80043da8     0x4000 /Programs/devkitpro/libogc/lib/wii/libogc.a(ogc_crt0.o)
 .bss           0x80047da8       0x20 /Programs/devkitpro/devkitPPC/bin/../lib/gcc/powerpc-gekko/4.2.4/../../../../powerpc-gekko/lib/libsysbase.a(syscall_support.o)
                0x80047da8                __syscalls
 .bss           0x80047dc8        0x8 /Programs/devkitpro/devkitPPC/bin/../lib/gcc/powerpc-gekko/4.2.4/../../../../powerpc-gekko/lib/libc.a(lib_a-findfp.o)
 .bss           0x80047dd0       0x28 /Programs/devkitpro/devkitPPC/bin/../lib/gcc/powerpc-gekko/4.2.4/../../../../powerpc-gekko/lib/libc.a(lib_a-mallocr.o)
                0x80047dd0                __malloc_current_mallinfo
 .bss           0x80047df8     0x1000 /Programs/devkitpro/devkitPPC/bin/../lib/gcc/powerpc-gekko/4.2.4/../../../../powerpc-gekko/lib/libsysbase.a(handle_manager.o)
 *(.bss.*)
 .bss.xfb       0x80048df8        0x4 main.o
 .bss.rmode     0x80048dfc        0x4 main.o
 .bss.miis.3723
                0x80048e00     0x68b0 /Programs/devkitpro/libogc/lib/wii/libmii.a(mii.o)
 .bss.__wpad_devs
                0x8004f6b0      0x461 /Programs/devkitpro/libogc/lib/wii/libwiiuse.a(wpad.o)
 *fill*         0x8004fb11        0x3 00
 .bss.__wpdcb   0x8004fb14     0x70a8 /Programs/devkitpro/libogc/lib/wii/libwiiuse.a(wpad.o)
 .bss.__wpads_listen
                0x80056bbc       0xc8 /Programs/devkitpro/libogc/lib/wii/libwiiuse.a(wpad.o)
 .bss.__wpad_keys
                0x80056c84       0x6e /Programs/devkitpro/libogc/lib/wii/libwiiuse.a(wpad.o)
 *fill*         0x80056cf2        0x2 00
 .bss.wpaddata  0x80056cf4      0x690 /Programs/devkitpro/libogc/lib/wii/libwiiuse.a(wpad.o)
 .bss.btstate   0x80057384       0x1c /Programs/devkitpro/libogc/lib/wii/libbte.a(bte.o)
 .bss.ppc_stack
                0x800573a0     0x8000 /Programs/devkitpro/libogc/lib/wii/libbte.a(bte.o)
 .bss.memb_mem_bte_pcbs
                0x8005f3a0      0x310 /Programs/devkitpro/libogc/lib/wii/libbte.a(bte.o)
 .bss.memb_mem_bte_ctrl_reqs
                0x8005f6b0     0x1c00 /Programs/devkitpro/libogc/lib/wii/libbte.a(bte.o)
 .bss.memb_mem_hci_inq_results
                0x800612b0     0x1800 /Programs/devkitpro/libogc/lib/wii/libbte.a(hci.o)
 .bss.memb_mem_hci_links
                0x80062ab0       0xa8 /Programs/devkitpro/libogc/lib/wii/libbte.a(hci.o)
 .bss.memb_mem_hci_link_key_results
                0x80062b58     0x2000 /Programs/devkitpro/libogc/lib/wii/libbte.a(hci.o)
 .bss.memb_mem_hci_pcbs
                0x80064b58       0x5c /Programs/devkitpro/libogc/lib/wii/libbte.a(hci.o)
 .bss.memb_mem_l2cap_sigs
                0x80064bb4       0xf0 /Programs/devkitpro/libogc/lib/wii/libbte.a(l2cap.o)
 .bss.memb_mem_l2cap_pcbs
                0x80064ca4      0x498 /Programs/devkitpro/libogc/lib/wii/libbte.a(l2cap.o)
 .bss.memb_mem_l2cap_segs
                0x8006513c      0x1c0 /Programs/devkitpro/libogc/lib/wii/libbte.a(l2cap.o)
 .bss.memb_mem_l2cap_listenpcbs
                0x800652fc      0x230 /Programs/devkitpro/libogc/lib/wii/libbte.a(l2cap.o)
 .bss.ram_block
                0x8006552c    0x10010 /Programs/devkitpro/libogc/lib/wii/libbte.a(btmemr.o)
 .bss.memb_mem_rom_pbufs
                0x8007553c      0x384 /Programs/devkitpro/libogc/lib/wii/libbte.a(btpbuf.o)
 .bss.memb_mem_pool_pbufs
                0x800758c0    0x32280 /Programs/devkitpro/libogc/lib/wii/libbte.a(btpbuf.o)
 .bss.__usbdev  0x800a7b40       0x1c /Programs/devkitpro/libogc/lib/wii/libbte.a(physbusif.o)
 *fill*         0x800a7b5c        0x4 00
 .bss.__ppc_btstack1
                0x800a7b60     0x8000 /Programs/devkitpro/libogc/lib/wii/libbte.a(physbusif.o)
 .bss.__ppc_btstack2
                0x800afb60     0x8000 /Programs/devkitpro/libogc/lib/wii/libbte.a(physbusif.o)
 .bss.stdcon    0x800b7b60       0x40 /Programs/devkitpro/libogc/lib/wii/libogc.a(console.o)
 .bss.g_IRQHandler
                0x800b7ba0      0x100 /Programs/devkitpro/libogc/lib/wii/libogc.a(irq.o)
 .bss.shdw_regs
                0x800b7ca0       0x78 /Programs/devkitpro/libogc/lib/wii/libogc.a(video.o)
 .bss.regs      0x800b7d18       0x78 /Programs/devkitpro/libogc/lib/wii/libogc.a(video.o)
 .bss.HorVer    0x800b7d90       0x58 /Programs/devkitpro/libogc/lib/wii/libogc.a(video.o)
 .bss.sys_alarm_objects
                0x800b7de8       0x28 /Programs/devkitpro/libogc/lib/wii/libogc.a(system.o)
 .bss.sys_reset_func_queue
                0x800b7e10        0xc /Programs/devkitpro/libogc/lib/wii/libogc.a(system.o)
 .bss.inputBufferValid
                0x800b7e1c       0x10 /Programs/devkitpro/libogc/lib/wii/libogc.a(si.o)
 .bss.inputBuffer
                0x800b7e2c       0x20 /Programs/devkitpro/libogc/lib/wii/libogc.a(si.o)
 .bss.typeCallback
                0x800b7e4c       0x40 /Programs/devkitpro/libogc/lib/wii/libogc.a(si.o)
 *fill*         0x800b7e8c        0x4 00
 .bss.typeTime  0x800b7e90       0x20 /Programs/devkitpro/libogc/lib/wii/libogc.a(si.o)
 .bss.xferTime  0x800b7eb0       0x20 /Programs/devkitpro/libogc/lib/wii/libogc.a(si.o)
 .bss.cmdfixdevice
                0x800b7ed0       0x10 /Programs/devkitpro/libogc/lib/wii/libogc.a(si.o)
 .bss.sipacket  0x800b7ee0       0x80 /Programs/devkitpro/libogc/lib/wii/libogc.a(si.o)
 .bss.inputBufferVCount
                0x800b7f60       0x10 /Programs/devkitpro/libogc/lib/wii/libogc.a(si.o)
 .bss.si_alarm  0x800b7f70       0x10 /Programs/devkitpro/libogc/lib/wii/libogc.a(si.o)
 .bss.rdstHandlers
                0x800b7f80       0x10 /Programs/devkitpro/libogc/lib/wii/libogc.a(si.o)
 .bss._ipc_heaps
                0x800b7f90      0x120 /Programs/devkitpro/libogc/lib/wii/libogc.a(ipc.o)
 .bss._ipc_responses
                0x800b80b0       0x50 /Programs/devkitpro/libogc/lib/wii/libogc.a(ipc.o)
 .bss.mem_lock  0x800b8100       0x5c /Programs/devkitpro/libogc/lib/wii/libogc.a(malloc_lock.o)
 *fill*         0x800b815c        0x4 00
 .bss.__stm_ehbufin
                0x800b8160       0x20 /Programs/devkitpro/libogc/lib/wii/libogc.a(stm.o)
 .bss.__stm_ehbufout
                0x800b8180       0x20 /Programs/devkitpro/libogc/lib/wii/libogc.a(stm.o)
 .bss.__stm_immbufin
                0x800b81a0       0x20 /Programs/devkitpro/libogc/lib/wii/libogc.a(stm.o)
 .bss.__stm_immbufout
                0x800b81c0       0x20 /Programs/devkitpro/libogc/lib/wii/libogc.a(stm.o)
 .bss.__conf_buffer
                0x800b81e0     0x4000 /Programs/devkitpro/libogc/lib/wii/libogc.a(conf.o)
 .bss.__conf_txt_buffer
                0x800bc1e0      0x101 /Programs/devkitpro/libogc/lib/wii/libogc.a(conf.o)
 *fill*         0x800bc2e1       0x1f 00
 .bss.stateflags
                0x800bc300       0x20 /Programs/devkitpro/libogc/lib/wii/libogc.a(wiilaunch.o)
 .bss.nandboot  0x800bc320     0x1020 /Programs/devkitpro/libogc/lib/wii/libogc.a(wiilaunch.o)
 .bss.__pad_type
                0x800bd340       0x10 /Programs/devkitpro/libogc/lib/wii/libogc.a(pad.o)
 .bss.__pad_cmdprobedevice
                0x800bd350       0x10 /Programs/devkitpro/libogc/lib/wii/libogc.a(pad.o)
 .bss.__pad_keys
                0x800bd360       0x50 /Programs/devkitpro/libogc/lib/wii/libogc.a(pad.o)
 .bss.__pad_origin
                0x800bd3b0       0x30 /Programs/devkitpro/libogc/lib/wii/libogc.a(pad.o)
 .bss.eximap    0x800bd3e0       0xc0 /Programs/devkitpro/libogc/lib/wii/libogc.a(exi.o)
 .bss.lckdevs   0x800bd4a0      0x200 /Programs/devkitpro/libogc/lib/wii/libogc.a(exi.o)
 .bss._lckdev_queue
                0x800bd6a0        0xc /Programs/devkitpro/libogc/lib/wii/libogc.a(exi.o)
 *fill*         0x800bd6ac        0x4 00
 .bss.last_exi_idtime
                0x800bd6b0       0x18 /Programs/devkitpro/libogc/lib/wii/libogc.a(exi.o)
 *(.gnu.linkonce.b.*)
 *(COMMON)
 COMMON         0x800bd6c8      0xef8 /Programs/devkitpro/libogc/lib/wii/libogc.a(lwp_threads.o)
                0x800bd6c8                _lwp_thr_ready
                0x800be2c8                _lwp_wd_timeslice
                0x800be2f0                core_context
 COMMON         0x800be5c0       0x50 /Programs/devkitpro/libogc/lib/wii/libogc.a(lwp.o)
                0x800be5c0                _lwp_thr_objects
                0x800be5e8                _lwp_tqueue_objects
 COMMON         0x800be610        0xc /Programs/devkitpro/libogc/lib/wii/libogc.a(lwp_watchdog.o)
                0x800be610                _wd_ticks_queue
 COMMON         0x800be61c       0x1c /Programs/devkitpro/libogc/lib/wii/libogc.a(lwp_wkspace.o)
                0x800be61c                __wkspace_heap
 *fill*         0x800be638        0x8 00
 COMMON         0x800be640       0x50 /Programs/devkitpro/libogc/lib/wii/libogc.a(system.o)
                0x800be640                sramcntrl
 COMMON         0x800be690       0x28 /Programs/devkitpro/libogc/lib/wii/libogc.a(cond.o)
                0x800be690                _lwp_cond_objects
 COMMON         0x800be6b8       0x28 /Programs/devkitpro/libogc/lib/wii/libogc.a(message.o)
                0x800be6b8                _lwp_mqbox_objects
 COMMON         0x800be6e0      0x400 /Programs/devkitpro/libogc/lib/wii/libogc.a(newlibc.o)
                0x800be6e0                libc_globl_reent
 COMMON         0x800beae0       0x40 /Programs/devkitpro/libogc/lib/wii/libogc.a(lwp_priority.o)
                0x800beae0                _prio_bitmap
 COMMON         0x800beb20       0x3c /Programs/devkitpro/libogc/lib/wii/libogc.a(exception.o)
                0x800beb20                _exceptionhandlertable
 COMMON         0x800beb5c       0x28 /Programs/devkitpro/libogc/lib/wii/libogc.a(semaphore.o)
                0x800beb5c                _lwp_sema_objects
 COMMON         0x800beb84       0x28 /Programs/devkitpro/libogc/lib/wii/libogc.a(mutex.o)
                0x800beb84                _lwp_mutex_objects
 COMMON         0x800bebac      0x100 /Programs/devkitpro/libogc/lib/wii/libogc.a(kprintf.o)
                0x800bebac                __outstr
                0x800becc0                . = ALIGN (0x20)
 *fill*         0x800becac       0x14 00
                0x800becc0                PROVIDE (__bss_end, .)
                0x800becc0                __bss_end = .
                0x800becc0                _end = .
                0x800becc0                PROVIDE (end, .)

.stab
 *(.stab)

.stabstr
 *(.stabstr)

.stab.excl
 *(.stab.excl)

.stab.exclstr
 *(.stab.exclstr)

.stab.index
 *(.stab.index)

.stab.indexstr
 *(.stab.indexstr)

.comment        0x00000000     0x1c23
 *(.comment)
 .comment       0x00000000        0xe /Programs/devkitpro/devkitPPC/bin/../lib/gcc/powerpc-gekko/4.2.4/ecrti.o
 .comment       0x0000000e       0x29 /Programs/devkitpro/devkitPPC/bin/../lib/gcc/powerpc-gekko/4.2.4/crtbegin.o
 .comment       0x00000037       0x29 /Programs/devkitpro/devkitPPC/bin/../lib/gcc/powerpc-gekko/4.2.4/../../../../powerpc-gekko/lib/crtmain.o
 .comment       0x00000060       0x29 main.o
 .comment       0x00000089       0x29 /Programs/devkitpro/libogc/lib/wii/libmii.a(mii.o)
 .comment       0x000000b2       0x29 /Programs/devkitpro/libogc/lib/wii/libisfs.a(isfs.o)
 .comment       0x000000db       0x29 /Programs/devkitpro/libogc/lib/wii/libwiiuse.a(wpad.o)
 .comment       0x00000104       0x29 /Programs/devkitpro/libogc/lib/wii/libwiiuse.a(dynamics.o)
 .comment       0x0000012d       0x29 /Programs/devkitpro/libogc/lib/wii/libwiiuse.a(io_wii.o)
 .comment       0x00000156       0x29 /Programs/devkitpro/libogc/lib/wii/libwiiuse.a(ir.o)
 .comment       0x0000017f       0x29 /Programs/devkitpro/libogc/lib/wii/libwiiuse.a(wiiuse.o)
 .comment       0x000001a8       0x29 /Programs/devkitpro/libogc/lib/wii/libwiiuse.a(events.o)
 .comment       0x000001d1       0x29 /Programs/devkitpro/libogc/lib/wii/libwiiuse.a(guitar_hero_3.o)
 .comment       0x000001fa       0x29 /Programs/devkitpro/libogc/lib/wii/libwiiuse.a(io.o)
 .comment       0x00000223       0x29 /Programs/devkitpro/libogc/lib/wii/libwiiuse.a(nunchuk.o)
 .comment       0x0000024c       0x29 /Programs/devkitpro/libogc/lib/wii/libwiiuse.a(wiiboard.o)
 .comment       0x00000275       0x29 /Programs/devkitpro/libogc/lib/wii/libwiiuse.a(classic.o)
 .comment       0x0000029e       0x29 /Programs/devkitpro/libogc/lib/wii/libbte.a(bte.o)
 .comment       0x000002c7       0x29 /Programs/devkitpro/libogc/lib/wii/libbte.a(hci.o)
 .comment       0x000002f0       0x29 /Programs/devkitpro/libogc/lib/wii/libbte.a(l2cap.o)
 .comment       0x00000319       0x29 /Programs/devkitpro/libogc/lib/wii/libbte.a(btmemb.o)
 .comment       0x00000342       0x29 /Programs/devkitpro/libogc/lib/wii/libbte.a(btmemr.o)
 .comment       0x0000036b       0x29 /Programs/devkitpro/libogc/lib/wii/libbte.a(btpbuf.o)
 .comment       0x00000394       0x29 /Programs/devkitpro/libogc/lib/wii/libbte.a(physbusif.o)
 .comment       0x000003bd       0x29 /Programs/devkitpro/libogc/lib/wii/libogc.a(console.o)
 .comment       0x000003e6       0x29 /Programs/devkitpro/libogc/lib/wii/libogc.a(lwp_queue.o)
 .comment       0x0000040f       0x29 /Programs/devkitpro/libogc/lib/wii/libogc.a(lwp_threads.o)
 .comment       0x00000438       0x29 /Programs/devkitpro/libogc/lib/wii/libogc.a(lwp.o)
 .comment       0x00000461       0x29 /Programs/devkitpro/libogc/lib/wii/libogc.a(lwp_stack.o)
 .comment       0x0000048a       0x29 /Programs/devkitpro/libogc/lib/wii/libogc.a(lwp_watchdog.o)
 .comment       0x000004b3       0x29 /Programs/devkitpro/libogc/lib/wii/libogc.a(lwp_wkspace.o)
 .comment       0x000004dc       0x29 /Programs/devkitpro/libogc/lib/wii/libogc.a(lwp_objmgr.o)
 .comment       0x00000505       0x29 /Programs/devkitpro/libogc/lib/wii/libogc.a(lwp_heap.o)
 .comment       0x0000052e       0x29 /Programs/devkitpro/libogc/lib/wii/libogc.a(sys_state.o)
 .comment       0x00000557       0x29 /Programs/devkitpro/libogc/lib/wii/libogc.a(irq.o)
 .comment       0x00000580       0x29 /Programs/devkitpro/libogc/lib/wii/libogc.a(video.o)
 .comment       0x000005a9       0x29 /Programs/devkitpro/libogc/lib/wii/libogc.a(system.o)
 .comment       0x000005d2       0x29 /Programs/devkitpro/libogc/lib/wii/libogc.a(cond.o)
 .comment       0x000005fb       0x29 /Programs/devkitpro/libogc/lib/wii/libogc.a(decrementer.o)
 .comment       0x00000624       0x29 /Programs/devkitpro/libogc/lib/wii/libogc.a(message.o)
 .comment       0x0000064d       0x29 /Programs/devkitpro/libogc/lib/wii/libogc.a(si.o)
 .comment       0x00000676       0x29 /Programs/devkitpro/libogc/lib/wii/libogc.a(ipc.o)
 .comment       0x0000069f       0x29 /Programs/devkitpro/libogc/lib/wii/libogc.a(console_font_8x16.o)
 .comment       0x000006c8       0x29 /Programs/devkitpro/libogc/lib/wii/libogc.a(timesupp.o)
 .comment       0x000006f1       0x29 /Programs/devkitpro/libogc/lib/wii/libogc.a(lock_supp.o)
 .comment       0x0000071a       0x29 /Programs/devkitpro/libogc/lib/wii/libogc.a(newlibc.o)
 .comment       0x00000743       0x29 /Programs/devkitpro/libogc/lib/wii/libogc.a(usbgecko.o)
 .comment       0x0000076c       0x29 /Programs/devkitpro/libogc/lib/wii/libogc.a(sbrk.o)
 .comment       0x00000795       0x29 /Programs/devkitpro/libogc/lib/wii/libogc.a(malloc_lock.o)
 .comment       0x000007be       0x29 /Programs/devkitpro/libogc/lib/wii/libogc.a(stm.o)
 .comment       0x000007e7       0x29 /Programs/devkitpro/libogc/lib/wii/libogc.a(ios.o)
 .comment       0x00000810       0x29 /Programs/devkitpro/libogc/lib/wii/libogc.a(es.o)
 .comment       0x00000839       0x29 /Programs/devkitpro/libogc/lib/wii/libogc.a(isfs.o)
 .comment       0x00000862       0x29 /Programs/devkitpro/libogc/lib/wii/libogc.a(usb.o)
 .comment       0x0000088b       0x29 /Programs/devkitpro/libogc/lib/wii/libogc.a(argv.o)
 .comment       0x000008b4       0x29 /Programs/devkitpro/libogc/lib/wii/libogc.a(conf.o)
 .comment       0x000008dd       0x29 /Programs/devkitpro/libogc/lib/wii/libogc.a(wiilaunch.o)
 .comment       0x00000906       0x29 /Programs/devkitpro/libogc/lib/wii/libogc.a(lwp_priority.o)
 .comment       0x0000092f       0x29 /Programs/devkitpro/libogc/lib/wii/libogc.a(lwp_threadq.o)
 .comment       0x00000958       0x29 /Programs/devkitpro/libogc/lib/wii/libogc.a(lwp_messages.o)
 .comment       0x00000981       0x29 /Programs/devkitpro/libogc/lib/wii/libogc.a(lwp_mutex.o)
 .comment       0x000009aa       0x29 /Programs/devkitpro/libogc/lib/wii/libogc.a(exception.o)
 .comment       0x000009d3       0x29 /Programs/devkitpro/libogc/lib/wii/libogc.a(semaphore.o)
 .comment       0x000009fc       0x29 /Programs/devkitpro/libogc/lib/wii/libogc.a(pad.o)
 .comment       0x00000a25       0x29 /Programs/devkitpro/libogc/lib/wii/libogc.a(exi.o)
 .comment       0x00000a4e       0x29 /Programs/devkitpro/libogc/lib/wii/libogc.a(mutex.o)
 .comment       0x00000a77       0x29 /Programs/devkitpro/libogc/lib/wii/libogc.a(kprintf.o)
 .comment       0x00000aa0       0x29 /Programs/devkitpro/libogc/lib/wii/libogc.a(lwp_sema.o)
 .comment       0x00000ac9       0x29 /Programs/devkitpro/devkitPPC/bin/../lib/gcc/powerpc-gekko/4.2.4/../../../../powerpc-gekko/lib/libm.a(lib_a-s_atan2.o)
 .comment       0x00000af2       0x29 /Programs/devkitpro/devkitPPC/bin/../lib/gcc/powerpc-gekko/4.2.4/../../../../powerpc-gekko/lib/libm.a(lib_a-s_atangent.o)
 .comment       0x00000b1b       0x29 /Programs/devkitpro/devkitPPC/bin/../lib/gcc/powerpc-gekko/4.2.4/../../../../powerpc-gekko/lib/libm.a(lib_a-s_cos.o)
 .comment       0x00000b44       0x29 /Programs/devkitpro/devkitPPC/bin/../lib/gcc/powerpc-gekko/4.2.4/../../../../powerpc-gekko/lib/libm.a(lib_a-s_fabs.o)
 .comment       0x00000b6d       0x29 /Programs/devkitpro/devkitPPC/bin/../lib/gcc/powerpc-gekko/4.2.4/../../../../powerpc-gekko/lib/libm.a(lib_a-s_frexp.o)
 .comment       0x00000b96       0x29 /Programs/devkitpro/devkitPPC/bin/../lib/gcc/powerpc-gekko/4.2.4/../../../../powerpc-gekko/lib/libm.a(lib_a-s_mathcnst.o)
 .comment       0x00000bbf       0x29 /Programs/devkitpro/devkitPPC/bin/../lib/gcc/powerpc-gekko/4.2.4/../../../../powerpc-gekko/lib/libm.a(lib_a-s_numtest.o)
 .comment       0x00000be8       0x29 /Programs/devkitpro/devkitPPC/bin/../lib/gcc/powerpc-gekko/4.2.4/../../../../powerpc-gekko/lib/libm.a(lib_a-s_sin.o)
 .comment       0x00000c11       0x29 /Programs/devkitpro/devkitPPC/bin/../lib/gcc/powerpc-gekko/4.2.4/../../../../powerpc-gekko/lib/libm.a(lib_a-s_sine.o)
 .comment       0x00000c3a       0x29 /Programs/devkitpro/devkitPPC/bin/../lib/gcc/powerpc-gekko/4.2.4/../../../../powerpc-gekko/lib/libm.a(lib_a-s_sqrt.o)
 .comment       0x00000c63       0x29 /Programs/devkitpro/devkitPPC/bin/../lib/gcc/powerpc-gekko/4.2.4/../../../../powerpc-gekko/lib/libm.a(lib_a-sf_atan.o)
 .comment       0x00000c8c       0x29 /Programs/devkitpro/devkitPPC/bin/../lib/gcc/powerpc-gekko/4.2.4/../../../../powerpc-gekko/lib/libm.a(lib_a-sf_atan2.o)
 .comment       0x00000cb5       0x29 /Programs/devkitpro/devkitPPC/bin/../lib/gcc/powerpc-gekko/4.2.4/../../../../powerpc-gekko/lib/libm.a(lib_a-sf_atangent.o)
 .comment       0x00000cde       0x29 /Programs/devkitpro/devkitPPC/bin/../lib/gcc/powerpc-gekko/4.2.4/../../../../powerpc-gekko/lib/libm.a(lib_a-sf_cos.o)
 .comment       0x00000d07       0x29 /Programs/devkitpro/devkitPPC/bin/../lib/gcc/powerpc-gekko/4.2.4/../../../../powerpc-gekko/lib/libm.a(lib_a-sf_fabs.o)
 .comment       0x00000d30       0x29 /Programs/devkitpro/devkitPPC/bin/../lib/gcc/powerpc-gekko/4.2.4/../../../../powerpc-gekko/lib/libm.a(lib_a-sf_fpclassify.o)
 .comment       0x00000d59       0x29 /Programs/devkitpro/devkitPPC/bin/../lib/gcc/powerpc-gekko/4.2.4/../../../../powerpc-gekko/lib/libm.a(lib_a-sf_frexp.o)
 .comment       0x00000d82       0x29 /Programs/devkitpro/devkitPPC/bin/../lib/gcc/powerpc-gekko/4.2.4/../../../../powerpc-gekko/lib/libm.a(lib_a-sf_isinff.o)
 .comment       0x00000dab       0x29 /Programs/devkitpro/devkitPPC/bin/../lib/gcc/powerpc-gekko/4.2.4/../../../../powerpc-gekko/lib/libm.a(lib_a-sf_isnanf.o)
 .comment       0x00000dd4       0x29 /Programs/devkitpro/devkitPPC/bin/../lib/gcc/powerpc-gekko/4.2.4/../../../../powerpc-gekko/lib/libm.a(lib_a-sf_numtest.o)
 .comment       0x00000dfd       0x29 /Programs/devkitpro/devkitPPC/bin/../lib/gcc/powerpc-gekko/4.2.4/../../../../powerpc-gekko/lib/libm.a(lib_a-sf_sin.o)
 .comment       0x00000e26       0x29 /Programs/devkitpro/devkitPPC/bin/../lib/gcc/powerpc-gekko/4.2.4/../../../../powerpc-gekko/lib/libm.a(lib_a-sf_sine.o)
 .comment       0x00000e4f       0x29 /Programs/devkitpro/devkitPPC/bin/../lib/gcc/powerpc-gekko/4.2.4/../../../../powerpc-gekko/lib/libm.a(lib_a-sf_sqrt.o)
 .comment       0x00000e78       0x29 /Programs/devkitpro/devkitPPC/bin/../lib/gcc/powerpc-gekko/4.2.4/../../../../powerpc-gekko/lib/libm.a(lib_a-s_ispos.o)
 .comment       0x00000ea1       0x29 /Programs/devkitpro/devkitPPC/bin/../lib/gcc/powerpc-gekko/4.2.4/../../../../powerpc-gekko/lib/libm.a(lib_a-s_ldexp.o)
 .comment       0x00000eca       0x29 /Programs/devkitpro/devkitPPC/bin/../lib/gcc/powerpc-gekko/4.2.4/../../../../powerpc-gekko/lib/libm.a(lib_a-sf_ispos.o)
 .comment       0x00000ef3       0x29 /Programs/devkitpro/devkitPPC/bin/../lib/gcc/powerpc-gekko/4.2.4/../../../../powerpc-gekko/lib/libm.a(lib_a-sf_ldexp.o)
 .comment       0x00000f1c       0x29 /Programs/devkitpro/devkitPPC/bin/../lib/gcc/powerpc-gekko/4.2.4/libgcc.a(_udivdi3.o)
 .comment       0x00000f45       0x29 /Programs/devkitpro/devkitPPC/bin/../lib/gcc/powerpc-gekko/4.2.4/../../../../powerpc-gekko/lib/libsysbase.a(abort.o)
 .comment       0x00000f6e       0x29 /Programs/devkitpro/devkitPPC/bin/../lib/gcc/powerpc-gekko/4.2.4/../../../../powerpc-gekko/lib/libsysbase.a(iosupport.o)
 .comment       0x00000f97       0x29 /Programs/devkitpro/devkitPPC/bin/../lib/gcc/powerpc-gekko/4.2.4/../../../../powerpc-gekko/lib/libsysbase.a(_exit.o)
 .comment       0x00000fc0       0x29 /Programs/devkitpro/devkitPPC/bin/../lib/gcc/powerpc-gekko/4.2.4/../../../../powerpc-gekko/lib/libsysbase.a(build_argv.o)
 .comment       0x00000fe9       0x29 /Programs/devkitpro/devkitPPC/bin/../lib/gcc/powerpc-gekko/4.2.4/../../../../powerpc-gekko/lib/libsysbase.a(syscall_support.o)
 .comment       0x00001012       0x29 /Programs/devkitpro/devkitPPC/bin/../lib/gcc/powerpc-gekko/4.2.4/../../../../powerpc-gekko/lib/libc.a(lib_a-calloc.o)
 .comment       0x0000103b       0x29 /Programs/devkitpro/devkitPPC/bin/../lib/gcc/powerpc-gekko/4.2.4/../../../../powerpc-gekko/lib/libc.a(lib_a-callocr.o)
 .comment       0x00001064       0x29 /Programs/devkitpro/devkitPPC/bin/../lib/gcc/powerpc-gekko/4.2.4/../../../../powerpc-gekko/lib/libc.a(lib_a-ctype_.o)
 .comment       0x0000108d       0x29 /Programs/devkitpro/devkitPPC/bin/../lib/gcc/powerpc-gekko/4.2.4/../../../../powerpc-gekko/lib/libc.a(lib_a-errno.o)
 .comment       0x000010b6       0x29 /Programs/devkitpro/devkitPPC/bin/../lib/gcc/powerpc-gekko/4.2.4/../../../../powerpc-gekko/lib/libc.a(lib_a-exit.o)
 .comment       0x000010df       0x29 /Programs/devkitpro/devkitPPC/bin/../lib/gcc/powerpc-gekko/4.2.4/../../../../powerpc-gekko/lib/libc.a(lib_a-fclose.o)
 .comment       0x00001108       0x29 /Programs/devkitpro/devkitPPC/bin/../lib/gcc/powerpc-gekko/4.2.4/../../../../powerpc-gekko/lib/libc.a(lib_a-fflush.o)
 .comment       0x00001131       0x29 /Programs/devkitpro/devkitPPC/bin/../lib/gcc/powerpc-gekko/4.2.4/../../../../powerpc-gekko/lib/libc.a(lib_a-findfp.o)
 .comment       0x0000115a       0x29 /Programs/devkitpro/devkitPPC/bin/../lib/gcc/powerpc-gekko/4.2.4/../../../../powerpc-gekko/lib/libc.a(lib_a-fopen.o)
 .comment       0x00001183       0x29 /Programs/devkitpro/devkitPPC/bin/../lib/gcc/powerpc-gekko/4.2.4/../../../../powerpc-gekko/lib/libc.a(lib_a-fprintf.o)
 .comment       0x000011ac       0x29 /Programs/devkitpro/devkitPPC/bin/../lib/gcc/powerpc-gekko/4.2.4/../../../../powerpc-gekko/lib/libc.a(lib_a-fread.o)
 .comment       0x000011d5       0x29 /Programs/devkitpro/devkitPPC/bin/../lib/gcc/powerpc-gekko/4.2.4/../../../../powerpc-gekko/lib/libc.a(lib_a-freer.o)
 .comment       0x000011fe       0x29 /Programs/devkitpro/devkitPPC/bin/../lib/gcc/powerpc-gekko/4.2.4/../../../../powerpc-gekko/lib/libc.a(lib_a-fseek.o)
 .comment       0x00001227       0x29 /Programs/devkitpro/devkitPPC/bin/../lib/gcc/powerpc-gekko/4.2.4/../../../../powerpc-gekko/lib/libc.a(lib_a-fwalk.o)
 .comment       0x00001250       0x29 /Programs/devkitpro/devkitPPC/bin/../lib/gcc/powerpc-gekko/4.2.4/../../../../powerpc-gekko/lib/libc.a(lib_a-fwrite.o)
 .comment       0x00001279       0x29 /Programs/devkitpro/devkitPPC/bin/../lib/gcc/powerpc-gekko/4.2.4/../../../../powerpc-gekko/lib/libc.a(lib_a-impure.o)
 .comment       0x000012a2       0x29 /Programs/devkitpro/devkitPPC/bin/../lib/gcc/powerpc-gekko/4.2.4/../../../../powerpc-gekko/lib/libc.a(lib_a-makebuf.o)
 .comment       0x000012cb       0x29 /Programs/devkitpro/devkitPPC/bin/../lib/gcc/powerpc-gekko/4.2.4/../../../../powerpc-gekko/lib/libc.a(lib_a-malign.o)
 .comment       0x000012f4       0x29 /Programs/devkitpro/devkitPPC/bin/../lib/gcc/powerpc-gekko/4.2.4/../../../../powerpc-gekko/lib/libc.a(lib_a-malignr.o)
 .comment       0x0000131d       0x29 /Programs/devkitpro/devkitPPC/bin/../lib/gcc/powerpc-gekko/4.2.4/../../../../powerpc-gekko/lib/libc.a(lib_a-malloc.o)
 .comment       0x00001346       0x29 /Programs/devkitpro/devkitPPC/bin/../lib/gcc/powerpc-gekko/4.2.4/../../../../powerpc-gekko/lib/libc.a(lib_a-mallocr.o)
 .comment       0x0000136f       0x29 /Programs/devkitpro/devkitPPC/bin/../lib/gcc/powerpc-gekko/4.2.4/../../../../powerpc-gekko/lib/libc.a(lib_a-memcmp.o)
 .comment       0x00001398       0x29 /Programs/devkitpro/devkitPPC/bin/../lib/gcc/powerpc-gekko/4.2.4/../../../../powerpc-gekko/lib/libc.a(lib_a-memcpy.o)
 .comment       0x000013c1       0x29 /Programs/devkitpro/devkitPPC/bin/../lib/gcc/powerpc-gekko/4.2.4/../../../../powerpc-gekko/lib/libc.a(lib_a-memmove.o)
 .comment       0x000013ea       0x29 /Programs/devkitpro/devkitPPC/bin/../lib/gcc/powerpc-gekko/4.2.4/../../../../powerpc-gekko/lib/libc.a(lib_a-memset.o)
 .comment       0x00001413       0x29 /Programs/devkitpro/devkitPPC/bin/../lib/gcc/powerpc-gekko/4.2.4/../../../../powerpc-gekko/lib/libc.a(lib_a-printf.o)
 .comment       0x0000143c       0x29 /Programs/devkitpro/devkitPPC/bin/../lib/gcc/powerpc-gekko/4.2.4/../../../../powerpc-gekko/lib/libc.a(lib_a-puts.o)
 .comment       0x00001465       0x29 /Programs/devkitpro/devkitPPC/bin/../lib/gcc/powerpc-gekko/4.2.4/../../../../powerpc-gekko/lib/libc.a(lib_a-realloc.o)
 .comment       0x0000148e       0x29 /Programs/devkitpro/devkitPPC/bin/../lib/gcc/powerpc-gekko/4.2.4/../../../../powerpc-gekko/lib/libc.a(lib_a-reallocr.o)
 .comment       0x000014b7       0x29 /Programs/devkitpro/devkitPPC/bin/../lib/gcc/powerpc-gekko/4.2.4/../../../../powerpc-gekko/lib/libc.a(lib_a-reent.o)
 .comment       0x000014e0       0x29 /Programs/devkitpro/devkitPPC/bin/../lib/gcc/powerpc-gekko/4.2.4/../../../../powerpc-gekko/lib/libc.a(lib_a-refill.o)
 .comment       0x00001509       0x29 /Programs/devkitpro/devkitPPC/bin/../lib/gcc/powerpc-gekko/4.2.4/../../../../powerpc-gekko/lib/libc.a(lib_a-setvbuf.o)
 .comment       0x00001532       0x29 /Programs/devkitpro/devkitPPC/bin/../lib/gcc/powerpc-gekko/4.2.4/../../../../powerpc-gekko/lib/libc.a(lib_a-snprintf.o)
 .comment       0x0000155b       0x29 /Programs/devkitpro/devkitPPC/bin/../lib/gcc/powerpc-gekko/4.2.4/../../../../powerpc-gekko/lib/libc.a(lib_a-sprintf.o)
 .comment       0x00001584       0x29 /Programs/devkitpro/devkitPPC/bin/../lib/gcc/powerpc-gekko/4.2.4/../../../../powerpc-gekko/lib/libc.a(lib_a-stdio.o)
 .comment       0x000015ad       0x29 /Programs/devkitpro/devkitPPC/bin/../lib/gcc/powerpc-gekko/4.2.4/../../../../powerpc-gekko/lib/libc.a(lib_a-strchr.o)
 .comment       0x000015d6       0x29 /Programs/devkitpro/devkitPPC/bin/../lib/gcc/powerpc-gekko/4.2.4/../../../../powerpc-gekko/lib/libc.a(lib_a-strcmp.o)
 .comment       0x000015ff       0x29 /Programs/devkitpro/devkitPPC/bin/../lib/gcc/powerpc-gekko/4.2.4/../../../../powerpc-gekko/lib/libc.a(lib_a-strcpy.o)
 .comment       0x00001628       0x29 /Programs/devkitpro/devkitPPC/bin/../lib/gcc/powerpc-gekko/4.2.4/../../../../powerpc-gekko/lib/libc.a(lib_a-strdup.o)
 .comment       0x00001651       0x29 /Programs/devkitpro/devkitPPC/bin/../lib/gcc/powerpc-gekko/4.2.4/../../../../powerpc-gekko/lib/libc.a(lib_a-strdup_r.o)
 .comment       0x0000167a       0x29 /Programs/devkitpro/devkitPPC/bin/../lib/gcc/powerpc-gekko/4.2.4/../../../../powerpc-gekko/lib/libc.a(lib_a-strlen.o)
 .comment       0x000016a3       0x29 /Programs/devkitpro/devkitPPC/bin/../lib/gcc/powerpc-gekko/4.2.4/../../../../powerpc-gekko/lib/libc.a(lib_a-strncasecmp.o)
 .comment       0x000016cc       0x29 /Programs/devkitpro/devkitPPC/bin/../lib/gcc/powerpc-gekko/4.2.4/../../../../powerpc-gekko/lib/libc.a(lib_a-strncmp.o)
 .comment       0x000016f5       0x29 /Programs/devkitpro/devkitPPC/bin/../lib/gcc/powerpc-gekko/4.2.4/../../../../powerpc-gekko/lib/libc.a(lib_a-strncpy.o)
 .comment       0x0000171e       0x29 /Programs/devkitpro/devkitPPC/bin/../lib/gcc/powerpc-gekko/4.2.4/../../../../powerpc-gekko/lib/libc.a(lib_a-strnlen.o)
 .comment       0x00001747       0x29 /Programs/devkitpro/devkitPPC/bin/../lib/gcc/powerpc-gekko/4.2.4/../../../../powerpc-gekko/lib/libc.a(lib_a-strtoul.o)
 .comment       0x00001770       0x29 /Programs/devkitpro/devkitPPC/bin/../lib/gcc/powerpc-gekko/4.2.4/../../../../powerpc-gekko/lib/libc.a(lib_a-strtoull_r.o)
 .comment       0x00001799       0x29 /Programs/devkitpro/devkitPPC/bin/../lib/gcc/powerpc-gekko/4.2.4/../../../../powerpc-gekko/lib/libc.a(lib_a-syswrite.o)
 .comment       0x000017c2       0x29 /Programs/devkitpro/devkitPPC/bin/../lib/gcc/powerpc-gekko/4.2.4/../../../../powerpc-gekko/lib/libc.a(lib_a-vfprintf.o)
 .comment       0x000017eb       0x29 /Programs/devkitpro/devkitPPC/bin/../lib/gcc/powerpc-gekko/4.2.4/../../../../powerpc-gekko/lib/libc.a(lib_a-wcrtomb.o)
 .comment       0x00001814       0x29 /Programs/devkitpro/devkitPPC/bin/../lib/gcc/powerpc-gekko/4.2.4/../../../../powerpc-gekko/lib/libc.a(lib_a-wcsrtombs.o)
 .comment       0x0000183d       0x29 /Programs/devkitpro/devkitPPC/bin/../lib/gcc/powerpc-gekko/4.2.4/../../../../powerpc-gekko/lib/libc.a(lib_a-wctomb_r.o)
 .comment       0x00001866       0x29 /Programs/devkitpro/devkitPPC/bin/../lib/gcc/powerpc-gekko/4.2.4/../../../../powerpc-gekko/lib/libc.a(lib_a-wsetup.o)
 .comment       0x0000188f       0x29 /Programs/devkitpro/devkitPPC/bin/../lib/gcc/powerpc-gekko/4.2.4/../../../../powerpc-gekko/lib/libc.a(lib_a-__call_atexit.o)
 .comment       0x000018b8       0x29 /Programs/devkitpro/devkitPPC/bin/../lib/gcc/powerpc-gekko/4.2.4/../../../../powerpc-gekko/lib/libc.a(lib_a-dtoa.o)
 .comment       0x000018e1       0x29 /Programs/devkitpro/devkitPPC/bin/../lib/gcc/powerpc-gekko/4.2.4/../../../../powerpc-gekko/lib/libc.a(lib_a-flags.o)
 .comment       0x0000190a       0x29 /Programs/devkitpro/devkitPPC/bin/../lib/gcc/powerpc-gekko/4.2.4/../../../../powerpc-gekko/lib/libc.a(lib_a-fvwrite.o)
 .comment       0x00001933       0x29 /Programs/devkitpro/devkitPPC/bin/../lib/gcc/powerpc-gekko/4.2.4/../../../../powerpc-gekko/lib/libc.a(lib_a-locale.o)
 .comment       0x0000195c       0x29 /Programs/devkitpro/devkitPPC/bin/../lib/gcc/powerpc-gekko/4.2.4/../../../../powerpc-gekko/lib/libc.a(lib_a-mbtowc_r.o)
 .comment       0x00001985       0x29 /Programs/devkitpro/devkitPPC/bin/../lib/gcc/powerpc-gekko/4.2.4/../../../../powerpc-gekko/lib/libc.a(lib_a-memchr.o)
 .comment       0x000019ae       0x29 /Programs/devkitpro/devkitPPC/bin/../lib/gcc/powerpc-gekko/4.2.4/../../../../powerpc-gekko/lib/libc.a(lib_a-mprec.o)
 .comment       0x000019d7       0x29 /Programs/devkitpro/devkitPPC/bin/../lib/gcc/powerpc-gekko/4.2.4/../../../../powerpc-gekko/lib/libc.a(lib_a-s_isinfd.o)
 .comment       0x00001a00       0x29 /Programs/devkitpro/devkitPPC/bin/../lib/gcc/powerpc-gekko/4.2.4/../../../../powerpc-gekko/lib/libc.a(lib_a-s_isnand.o)
 .comment       0x00001a29       0x29 /Programs/devkitpro/devkitPPC/bin/../lib/gcc/powerpc-gekko/4.2.4/../../../../powerpc-gekko/lib/libsysbase.a(close.o)
 .comment       0x00001a52       0x29 /Programs/devkitpro/devkitPPC/bin/../lib/gcc/powerpc-gekko/4.2.4/../../../../powerpc-gekko/lib/libsysbase.a(fstat.o)
 .comment       0x00001a7b       0x29 /Programs/devkitpro/devkitPPC/bin/../lib/gcc/powerpc-gekko/4.2.4/../../../../powerpc-gekko/lib/libsysbase.a(isatty.o)
 .comment       0x00001aa4       0x29 /Programs/devkitpro/devkitPPC/bin/../lib/gcc/powerpc-gekko/4.2.4/../../../../powerpc-gekko/lib/libsysbase.a(lseek.o)
 .comment       0x00001acd       0x29 /Programs/devkitpro/devkitPPC/bin/../lib/gcc/powerpc-gekko/4.2.4/../../../../powerpc-gekko/lib/libsysbase.a(open.o)
 .comment       0x00001af6       0x29 /Programs/devkitpro/devkitPPC/bin/../lib/gcc/powerpc-gekko/4.2.4/../../../../powerpc-gekko/lib/libsysbase.a(read.o)
 .comment       0x00001b1f       0x29 /Programs/devkitpro/devkitPPC/bin/../lib/gcc/powerpc-gekko/4.2.4/../../../../powerpc-gekko/lib/libsysbase.a(sbrk.o)
 .comment       0x00001b48       0x29 /Programs/devkitpro/devkitPPC/bin/../lib/gcc/powerpc-gekko/4.2.4/../../../../powerpc-gekko/lib/libsysbase.a(write.o)
 .comment       0x00001b71       0x29 /Programs/devkitpro/devkitPPC/bin/../lib/gcc/powerpc-gekko/4.2.4/../../../../powerpc-gekko/lib/libsysbase.a(flock.o)
 .comment       0x00001b9a       0x29 /Programs/devkitpro/devkitPPC/bin/../lib/gcc/powerpc-gekko/4.2.4/../../../../powerpc-gekko/lib/libsysbase.a(handle_manager.o)
 .comment       0x00001bc3       0x29 /Programs/devkitpro/devkitPPC/bin/../lib/gcc/powerpc-gekko/4.2.4/libgcc.a(_umoddi3.o)
 .comment       0x00001bec       0x29 /Programs/devkitpro/devkitPPC/bin/../lib/gcc/powerpc-gekko/4.2.4/crtend.o
 .comment       0x00001c15        0xe /Programs/devkitpro/devkitPPC/bin/../lib/gcc/powerpc-gekko/4.2.4/ecrtn.o

.debug
 *(.debug)

.line
 *(.line)

.debug_srcinfo
 *(.debug_srcinfo)

.debug_sfnames
 *(.debug_sfnames)

.debug_aranges  0x00000000       0xc0
 *(.debug_aranges)
 .debug_aranges
                0x00000000       0x20 /Programs/devkitpro/devkitPPC/bin/../lib/gcc/powerpc-gekko/4.2.4/../../../../powerpc-gekko/lib/crtmain.o
 .debug_aranges
                0x00000020       0x40 main.o
 .debug_aranges
                0x00000060       0x40 /Programs/devkitpro/libogc/lib/wii/libmii.a(mii.o)
 .debug_aranges
                0x000000a0       0x20 /Programs/devkitpro/libogc/lib/wii/libisfs.a(isfs.o)

.debug_pubnames
                0x00000000       0xf2
 *(.debug_pubnames)
 .debug_pubnames
                0x00000000       0x20 /Programs/devkitpro/devkitPPC/bin/../lib/gcc/powerpc-gekko/4.2.4/../../../../powerpc-gekko/lib/crtmain.o
 .debug_pubnames
                0x00000020       0x4f main.o
 .debug_pubnames
                0x0000006f       0x45 /Programs/devkitpro/libogc/lib/wii/libmii.a(mii.o)
 .debug_pubnames
                0x000000b4       0x3e /Programs/devkitpro/libogc/lib/wii/libisfs.a(isfs.o)

.debug_info     0x00000000     0x2d8d
 *(.debug_info)
 .debug_info    0x00000000       0xf8 /Programs/devkitpro/devkitPPC/bin/../lib/gcc/powerpc-gekko/4.2.4/../../../../powerpc-gekko/lib/crtmain.o
 .debug_info    0x000000f8      0x5f5 main.o
 .debug_info    0x000006ed      0xdff /Programs/devkitpro/libogc/lib/wii/libmii.a(mii.o)
 .debug_info    0x000014ec     0x18a1 /Programs/devkitpro/libogc/lib/wii/libisfs.a(isfs.o)

.debug_abbrev   0x00000000      0x7e7
 *(.debug_abbrev)
 .debug_abbrev  0x00000000       0x7c /Programs/devkitpro/devkitPPC/bin/../lib/gcc/powerpc-gekko/4.2.4/../../../../powerpc-gekko/lib/crtmain.o
 .debug_abbrev  0x0000007c      0x158 main.o
 .debug_abbrev  0x000001d4      0x253 /Programs/devkitpro/libogc/lib/wii/libmii.a(mii.o)
 .debug_abbrev  0x00000427      0x3c0 /Programs/devkitpro/libogc/lib/wii/libisfs.a(isfs.o)

.debug_line     0x00000000      0xa49
 *(.debug_line)
 .debug_line    0x00000000       0x86 /Programs/devkitpro/devkitPPC/bin/../lib/gcc/powerpc-gekko/4.2.4/../../../../powerpc-gekko/lib/crtmain.o
 .debug_line    0x00000086      0x155 main.o
 .debug_line    0x000001db      0x3c9 /Programs/devkitpro/libogc/lib/wii/libmii.a(mii.o)
 .debug_line    0x000005a4      0x4a5 /Programs/devkitpro/libogc/lib/wii/libisfs.a(isfs.o)

.debug_frame    0x00000000      0x3ec
 *(.debug_frame)
 .debug_frame   0x00000000       0x30 /Programs/devkitpro/devkitPPC/bin/../lib/gcc/powerpc-gekko/4.2.4/../../../../powerpc-gekko/lib/crtmain.o
 .debug_frame   0x00000030       0x8c main.o
 .debug_frame   0x000000bc       0xb8 /Programs/devkitpro/libogc/lib/wii/libmii.a(mii.o)
 .debug_frame   0x00000174      0x278 /Programs/devkitpro/libogc/lib/wii/libisfs.a(isfs.o)

.debug_str      0x00000000      0xd1e
 *(.debug_str)
 .debug_str     0x00000000      0x101 /Programs/devkitpro/devkitPPC/bin/../lib/gcc/powerpc-gekko/4.2.4/../../../../powerpc-gekko/lib/crtmain.o
                                0x146 (size before relaxing)
 .debug_str     0x00000101      0x347 main.o
                                0x402 (size before relaxing)
 .debug_str     0x00000448      0x3dd /Programs/devkitpro/libogc/lib/wii/libmii.a(mii.o)
                                0x718 (size before relaxing)
 .debug_str     0x00000825      0x4f9 /Programs/devkitpro/libogc/lib/wii/libisfs.a(isfs.o)
                                0xa0c (size before relaxing)

.debug_loc      0x00000000      0xf4f
 *(.debug_loc)
 .debug_loc     0x00000000       0x1f /Programs/devkitpro/devkitPPC/bin/../lib/gcc/powerpc-gekko/4.2.4/../../../../powerpc-gekko/lib/crtmain.o
 .debug_loc     0x0000001f       0xe2 main.o
 .debug_loc     0x00000101      0x210 /Programs/devkitpro/libogc/lib/wii/libmii.a(mii.o)
 .debug_loc     0x00000311      0xc3e /Programs/devkitpro/libogc/lib/wii/libisfs.a(isfs.o)

.debug_macinfo
 *(.debug_macinfo)

.debug_weaknames
 *(.debug_weaknames)

.debug_funcnames
 *(.debug_funcnames)

.debug_typenames
 *(.debug_typenames)

.debug_varnames
 *(.debug_varnames)
                0x00000000                __isIPL = 0x0
                0x800decc0                __stack_addr = ((((__bss_start + SIZEOF (.bss)) + 0x20000) + 0x7) & 0xfffffff8)
                0x800becc0                __stack_end = (__bss_start + SIZEOF (.bss))
                0x800e2cc0                __intrstack_addr = (__stack_addr + 0x4000)
                0x800decc0                __intrstack_end = __stack_addr
                0x800e2cc0                __Arena1Lo = ((__intrstack_addr + 0x1f) & 0xffffffe0)
                0x816ffff0                __Arena1Hi = 0x816ffff0
                0x90002000                __Arena2Lo = 0x90002000
                0x933e0000                __Arena2Hi = 0x933e0000
                0x81700000                __gxregs = ((__Arena1Hi + 0x1f) & 0xffffffe0)
                0x933e0000                __ipcbufferLo = 0x933e0000
                0x93400000                __ipcbufferHi = 0x93400000
                0x816ffff0                PROVIDE (__stack, 0x816ffff0)
                [0x00000000]                PROVIDE (__isIPL, __isIPL)
                [0x800decc0]                PROVIDE (__stack_addr, __stack_addr)
                [0x800becc0]                PROVIDE (__stack_end, __stack_end)
                [0x800e2cc0]                PROVIDE (__intrstack_addr, __intrstack_addr)
                [0x800decc0]                PROVIDE (__intrstack_end, __intrstack_end)
                [0x800e2cc0]                PROVIDE (__Arena1Lo, __Arena1Lo)
                [0x816ffff0]                PROVIDE (__Arena1Hi, __Arena1Hi)
                [0x90002000]                PROVIDE (__Arena2Lo, __Arena2Lo)
                [0x933e0000]                PROVIDE (__Arena2Hi, __Arena2Hi)
                [0x933e0000]                PROVIDE (__ipcbufferLo, __ipcbufferLo)
                [0x93400000]                PROVIDE (__ipcbufferHi, __ipcbufferHi)
                [0x81700000]                PROVIDE (__gxregs, __gxregs)
LOAD /Programs/devkitpro/devkitPPC/bin/../lib/gcc/powerpc-gekko/4.2.4/ecrti.o
LOAD /Programs/devkitpro/devkitPPC/bin/../lib/gcc/powerpc-gekko/4.2.4/crtbegin.o
LOAD /Programs/devkitpro/devkitPPC/bin/../lib/gcc/powerpc-gekko/4.2.4/../../../../powerpc-gekko/lib/crtmain.o
LOAD main.o
LOAD /Programs/devkitpro/libogc/lib/wii/libmii.a
LOAD /Programs/devkitpro/libogc/lib/wii/libisfs.a
LOAD /Programs/devkitpro/libogc/lib/wii/libwiiuse.a
LOAD /Programs/devkitpro/libogc/lib/wii/libbte.a
LOAD /Programs/devkitpro/libogc/lib/wii/libogc.a
LOAD /Programs/devkitpro/devkitPPC/bin/../lib/gcc/powerpc-gekko/4.2.4/../../../../powerpc-gekko/lib/libm.a
LOAD /Programs/devkitpro/devkitPPC/bin/../lib/gcc/powerpc-gekko/4.2.4/libgcc.a
START GROUP
LOAD /Programs/devkitpro/devkitPPC/bin/../lib/gcc/powerpc-gekko/4.2.4/../../../../powerpc-gekko/lib/libsysbase.a
LOAD /Programs/devkitpro/devkitPPC/bin/../lib/gcc/powerpc-gekko/4.2.4/../../../../powerpc-gekko/lib/libc.a
END GROUP
LOAD /Programs/devkitpro/devkitPPC/bin/../lib/gcc/powerpc-gekko/4.2.4/libgcc.a
LOAD /Programs/devkitpro/devkitPPC/bin/../lib/gcc/powerpc-gekko/4.2.4/crtsavres.o
LOAD /Programs/devkitpro/devkitPPC/bin/../lib/gcc/powerpc-gekko/4.2.4/crtend.o
LOAD /Programs/devkitpro/devkitPPC/bin/../lib/gcc/powerpc-gekko/4.2.4/ecrtn.o
OUTPUT(/home/matthew/Projects/libmii/example/example.elf elf32-powerpc)

.debug_ranges   0x00000000      0x1d0
 .debug_ranges  0x00000000       0x40 /Programs/devkitpro/libogc/lib/wii/libmii.a(mii.o)
 .debug_ranges  0x00000040      0x190 /Programs/devkitpro/libogc/lib/wii/libisfs.a(isfs.o)
